---
triple:          'arm64-apple-darwin'
binary-path:     'bin/peer'
relocations:
  - { offsetInCU: 0x5C, offset: 0x5C, size: 0x8, addend: 0x0, symName: __ZNSt3__18in_placeE, symObjAddr: 0x8A17, symBinAddr: 0x100022BF6, symSize: 0x0 }
  - { offsetInCU: 0x8D, offset: 0x8D, size: 0x8, addend: 0x0, symName: __ZNSt3__17nulloptE, symObjAddr: 0x8A16, symBinAddr: 0x100022BF5, symSize: 0x0 }
  - { offsetInCU: 0x84F8, offset: 0x84F8, size: 0x8, addend: 0x0, symName: __ZNSt3__124__put_character_sequenceB8ue170006IcNS_11char_traitsIcEEEERNS_13basic_ostreamIT_T0_EES7_PKS4_m, symObjAddr: 0x7E08, symBinAddr: 0x100009DA4, symSize: 0x1EC }
  - { offsetInCU: 0xC8E3, offset: 0xC8E3, size: 0x8, addend: 0x0, symName: __ZNSt3__1neB8ue170006IPNS_4pairINS_12basic_stringIcNS_11char_traitsIcEENS_9allocatorIcEEEES7_EEEEbRKNS_11__wrap_iterIT_EESE_, symObjAddr: 0x3CC, symBinAddr: 0x100002368, symSize: 0x34 }
  - { offsetInCU: 0xC926, offset: 0xC926, size: 0x8, addend: 0x0, symName: __ZNSt3__1neB8ue170006ERKNS_21__tree_const_iteratorINS_12basic_stringIcNS_11char_traitsIcEENS_9allocatorIcEEEEPNS_11__tree_nodeIS6_PvEElEESD_, symObjAddr: 0xE90, symBinAddr: 0x100002E2C, symSize: 0x34 }
  - { offsetInCU: 0xC963, offset: 0xC963, size: 0x8, addend: 0x0, symName: __ZNSt3__1lsB8ue170006IcNS_11char_traitsIcEENS_9allocatorIcEEEERNS_13basic_ostreamIT_T0_EES9_RKNS_12basic_stringIS6_S7_T1_EE, symObjAddr: 0x10EC, symBinAddr: 0x100003088, symSize: 0x4C }
  - { offsetInCU: 0xC9BB, offset: 0xC9BB, size: 0x8, addend: 0x0, symName: __ZNSt3__1lsB8ue170006INS_11char_traitsIcEEEERNS_13basic_ostreamIcT_EES6_PKc, symObjAddr: 0x1138, symBinAddr: 0x1000030D4, symSize: 0x48 }
  - { offsetInCU: 0xCA01, offset: 0xCA01, size: 0x8, addend: 0x0, symName: __ZNSt3__14endlB8ue170006IcNS_11char_traitsIcEEEERNS_13basic_ostreamIT_T0_EES7_, symObjAddr: 0x11AC, symBinAddr: 0x100003148, symSize: 0x58 }
  - { offsetInCU: 0xCA41, offset: 0xCA41, size: 0x8, addend: 0x0, symName: __ZNSt3__1eqB8ue170006IPNS_4pairINS_12basic_stringIcNS_11char_traitsIcEENS_9allocatorIcEEEES7_EEEEbRKNS_11__wrap_iterIT_EESE_, symObjAddr: 0x1230, symBinAddr: 0x1000031CC, symSize: 0x48 }
  - { offsetInCU: 0xCA84, offset: 0xCA84, size: 0x8, addend: 0x0, symName: __ZNSt3__127__throw_bad_optional_accessB8ue170006Ev, symObjAddr: 0x16D8, symBinAddr: 0x100003674, symSize: 0x38 }
  - { offsetInCU: 0xCAD1, offset: 0xCAD1, size: 0x8, addend: 0x0, symName: __ZNSt3__119__libcpp_deallocateB8ue170006EPvmm, symObjAddr: 0x250C, symBinAddr: 0x1000044A8, symSize: 0x60 }
  - { offsetInCU: 0xCB36, offset: 0xCB36, size: 0x8, addend: 0x0, symName: __ZNSt3__124__is_overaligned_for_newB8ue170006Em, symObjAddr: 0x256C, symBinAddr: 0x100004508, symSize: 0x20 }
  - { offsetInCU: 0xCB64, offset: 0xCB64, size: 0x8, addend: 0x0, symName: __ZNSt3__127__do_deallocate_handle_sizeB8ue170006IJSt11align_val_tEEEvPvmDpT_, symObjAddr: 0x258C, symBinAddr: 0x100004528, symSize: 0x30 }
  - { offsetInCU: 0xCBB7, offset: 0xCBB7, size: 0x8, addend: 0x0, symName: __ZNSt3__127__do_deallocate_handle_sizeB8ue170006IJEEEvPvmDpT_, symObjAddr: 0x25BC, symBinAddr: 0x100004558, symSize: 0x28 }
  - { offsetInCU: 0xCBF5, offset: 0xCBF5, size: 0x8, addend: 0x0, symName: __ZNSt3__124__libcpp_operator_deleteB8ue170006IJPvSt11align_val_tEEEvDpT_, symObjAddr: 0x25E4, symBinAddr: 0x100004580, symSize: 0x2C }
  - { offsetInCU: 0xCC3E, offset: 0xCC3E, size: 0x8, addend: 0x0, symName: __ZNSt3__124__libcpp_operator_deleteB8ue170006IJPvEEEvDpT_, symObjAddr: 0x2610, symBinAddr: 0x1000045AC, symSize: 0x24 }
  - { offsetInCU: 0xCCA6, offset: 0xCCA6, size: 0x8, addend: 0x0, symName: __ZNSt3__17launderB8ue170006INS_4pairIKNS_12basic_stringIcNS_11char_traitsIcEENS_9allocatorIcEEEES7_EEEEPT_SB_, symObjAddr: 0x29D0, symBinAddr: 0x10000496C, symSize: 0x24 }
  - { offsetInCU: 0xCCDD, offset: 0xCCDD, size: 0x8, addend: 0x0, symName: __ZNSt3__19__launderB8ue170006INS_4pairIKNS_12basic_stringIcNS_11char_traitsIcEENS_9allocatorIcEEEES7_EEEEPT_SB_, symObjAddr: 0x29F4, symBinAddr: 0x100004990, symSize: 0x14 }
  - { offsetInCU: 0xCD14, offset: 0xCD14, size: 0x8, addend: 0x0, symName: __ZNSt3__1ltB8ue170006IcNS_11char_traitsIcEENS_9allocatorIcEEEEbRKNS_12basic_stringIT_T0_T1_EESB_, symObjAddr: 0x3414, symBinAddr: 0x1000053B0, symSize: 0x38 }
  - { offsetInCU: 0xCD6C, offset: 0xCD6C, size: 0x8, addend: 0x0, symName: __ZNSt3__13minB8ue170006ImEERKT_S3_S3_, symObjAddr: 0x36F4, symBinAddr: 0x100005690, symSize: 0x2C }
  - { offsetInCU: 0xCDAF, offset: 0xCDAF, size: 0x8, addend: 0x0, symName: __ZNSt3__112__to_addressB8ue170006IKcEEPT_S3_, symObjAddr: 0x37EC, symBinAddr: 0x100005788, symSize: 0x14 }
  - { offsetInCU: 0xCE17, offset: 0xCE17, size: 0x8, addend: 0x0, symName: __ZNSt3__13minB8ue170006ImNS_6__lessIvvEEEERKT_S5_S5_T0_, symObjAddr: 0x38B8, symBinAddr: 0x100005854, symSize: 0x54 }
  - { offsetInCU: 0xCED4, offset: 0xCED4, size: 0x8, addend: 0x0, symName: __ZNSt3__117__libcpp_allocateB8ue170006Emm, symObjAddr: 0x3B8C, symBinAddr: 0x100005B28, symSize: 0x60 }
  - { offsetInCU: 0xCF2E, offset: 0xCF2E, size: 0x8, addend: 0x0, symName: __ZNSt3__121__libcpp_operator_newB8ue170006IJmSt11align_val_tEEEPvDpT_, symObjAddr: 0x3C0C, symBinAddr: 0x100005BA8, symSize: 0x2C }
  - { offsetInCU: 0xCF7B, offset: 0xCF7B, size: 0x8, addend: 0x0, symName: __ZNSt3__121__libcpp_operator_newB8ue170006IJmEEEPvDpT_, symObjAddr: 0x3C38, symBinAddr: 0x100005BD4, symSize: 0x24 }
  - { offsetInCU: 0xCFB4, offset: 0xCFB4, size: 0x8, addend: 0x0, symName: __ZNSt3__127__tree_balance_after_insertB8ue170006IPNS_16__tree_node_baseIPvEEEEvT_S5_, symObjAddr: 0x3E4C, symBinAddr: 0x100005DE8, symSize: 0x32C }
  - { offsetInCU: 0xD030, offset: 0xD030, size: 0x8, addend: 0x0, symName: __ZNSt3__120__tree_is_left_childB8ue170006IPNS_16__tree_node_baseIPvEEEEbT_, symObjAddr: 0x41B8, symBinAddr: 0x100006154, symSize: 0x2C }
  - { offsetInCU: 0xD065, offset: 0xD065, size: 0x8, addend: 0x0, symName: __ZNSt3__118__tree_left_rotateB8ue170006IPNS_16__tree_node_baseIPvEEEEvT_, symObjAddr: 0x41E4, symBinAddr: 0x100006180, symSize: 0xD8 }
  - { offsetInCU: 0xD0A7, offset: 0xD0A7, size: 0x8, addend: 0x0, symName: __ZNSt3__119__tree_right_rotateB8ue170006IPNS_16__tree_node_baseIPvEEEEvT_, symObjAddr: 0x42BC, symBinAddr: 0x100006258, symSize: 0xCC }
  - { offsetInCU: 0xD10D, offset: 0xD10D, size: 0x8, addend: 0x0, symName: __ZNSt3__116__constrain_hashB8ue170006Emm, symObjAddr: 0x4C08, symBinAddr: 0x100006BA4, symSize: 0x98 }
  - { offsetInCU: 0xD147, offset: 0xD147, size: 0x8, addend: 0x0, symName: __ZNSt3__13maxB8ue170006ImEERKT_S3_S3_, symObjAddr: 0x4F20, symBinAddr: 0x100006EBC, symSize: 0x2C }
  - { offsetInCU: 0xD18A, offset: 0xD18A, size: 0x8, addend: 0x0, symName: __ZNSt3__116__is_hash_power2B8ue170006Em, symObjAddr: 0x4F4C, symBinAddr: 0x100006EE8, symSize: 0x50 }
  - { offsetInCU: 0xD1B6, offset: 0xD1B6, size: 0x8, addend: 0x0, symName: __ZNSt3__116__do_string_hashB8ue170006IPKcEEmT_S3_, symObjAddr: 0x51A4, symBinAddr: 0x100007140, symSize: 0x3C }
  - { offsetInCU: 0xD1FC, offset: 0xD1FC, size: 0x8, addend: 0x0, symName: __ZNSt3__110__loadwordB8ue170006ImEET_PKv, symObjAddr: 0x5B98, symBinAddr: 0x100007B34, symSize: 0x20 }
  - { offsetInCU: 0xD23F, offset: 0xD23F, size: 0x8, addend: 0x0, symName: __ZNSt3__14swapB8ue170006ImEENS_9enable_ifIXaasr21is_move_constructibleIT_EE5valuesr18is_move_assignableIS2_EE5valueEvE4typeERS2_S5_, symObjAddr: 0x5D54, symBinAddr: 0x100007CF0, symSize: 0x3C }
  - { offsetInCU: 0xD290, offset: 0xD290, size: 0x8, addend: 0x0, symName: __ZNSt3__110__loadwordB8ue170006IjEET_PKv, symObjAddr: 0x5DE4, symBinAddr: 0x100007D80, symSize: 0x20 }
  - { offsetInCU: 0xD2D3, offset: 0xD2D3, size: 0x8, addend: 0x0, symName: __ZNSt3__1eqB8ue170006INS_9allocatorIcEEEEbRKNS_12basic_stringIcNS_11char_traitsIcEET_EES9_, symObjAddr: 0x60D4, symBinAddr: 0x100008070, symSize: 0x148 }
  - { offsetInCU: 0xD346, offset: 0xD346, size: 0x8, addend: 0x0, symName: __ZNSt3__17launderB8ue170006IKNS_4pairIKNS_12basic_stringIcNS_11char_traitsIcEENS_9allocatorIcEEEES7_EEEEPT_SC_, symObjAddr: 0x621C, symBinAddr: 0x1000081B8, symSize: 0x24 }
  - { offsetInCU: 0xD37D, offset: 0xD37D, size: 0x8, addend: 0x0, symName: __ZNSt3__19__launderB8ue170006IKNS_4pairIKNS_12basic_stringIcNS_11char_traitsIcEENS_9allocatorIcEEEES7_EEEEPT_SC_, symObjAddr: 0x6240, symBinAddr: 0x1000081DC, symSize: 0x14 }
  - { offsetInCU: 0xD3D2, offset: 0xD3D2, size: 0x8, addend: 0x0, symName: __ZNSt3__116__next_hash_pow2B8ue170006Em, symObjAddr: 0x6AEC, symBinAddr: 0x100008A88, symSize: 0x6C }
  - { offsetInCU: 0xD41A, offset: 0xD41A, size: 0x8, addend: 0x0, symName: __ZNSt3__112__libcpp_clzB8ue170006Em, symObjAddr: 0x6CB0, symBinAddr: 0x100008C4C, symSize: 0x1C }
  - { offsetInCU: 0xD446, offset: 0xD446, size: 0x8, addend: 0x0, symName: __ZNSt3__13maxB8ue170006ImNS_6__lessIvvEEEERKT_S5_S5_T0_, symObjAddr: 0x6CCC, symBinAddr: 0x100008C68, symSize: 0x54 }
  - { offsetInCU: 0xD4A0, offset: 0xD4A0, size: 0x8, addend: 0x0, symName: __ZNSt3__110__str_findB8ue170006IcmNS_11char_traitsIcEELm18446744073709551615EEET0_PKT_S3_S6_S3_S3_, symObjAddr: 0x6FC8, symBinAddr: 0x100008F64, symSize: 0xE4 }
  - { offsetInCU: 0xD547, offset: 0xD547, size: 0x8, addend: 0x0, symName: __ZNSt3__118__search_substringB8ue170006IcNS_11char_traitsIcEEEEPKT_S5_S5_S5_S5_, symObjAddr: 0x70E0, symBinAddr: 0x10000907C, symSize: 0x154 }
  - { offsetInCU: 0xD5E1, offset: 0xD5E1, size: 0x8, addend: 0x0, symName: __ZNSt3__118__constexpr_memchrB8ue170006IKccEEPT_S3_T0_m, symObjAddr: 0x72A4, symBinAddr: 0x100009240, symSize: 0x40 }
  - { offsetInCU: 0xD657, offset: 0xD657, size: 0x8, addend: 0x0, symName: __ZNSt3__118__constexpr_strlenB8ue170006EPKc, symObjAddr: 0x72E4, symBinAddr: 0x100009280, symSize: 0x24 }
  - { offsetInCU: 0xD683, offset: 0xD683, size: 0x8, addend: 0x0, symName: __ZNSt3__1neB8ue170006ERKNS_15__tree_iteratorINS_12basic_stringIcNS_11char_traitsIcEENS_9allocatorIcEEEEPNS_11__tree_nodeIS6_PvEElEESD_, symObjAddr: 0x7620, symBinAddr: 0x1000095BC, symSize: 0x34 }
  - { offsetInCU: 0xD6C0, offset: 0xD6C0, size: 0x8, addend: 0x0, symName: __ZNSt3__1eqB8ue170006ERKNS_15__tree_iteratorINS_12basic_stringIcNS_11char_traitsIcEENS_9allocatorIcEEEEPNS_11__tree_nodeIS6_PvEElEESD_, symObjAddr: 0x7704, symBinAddr: 0x1000096A0, symSize: 0x30 }
  - { offsetInCU: 0xD6FD, offset: 0xD6FD, size: 0x8, addend: 0x0, symName: __ZNSt3__1eqB8ue170006ERKNS_21__tree_const_iteratorINS_12basic_stringIcNS_11char_traitsIcEENS_9allocatorIcEEEEPNS_11__tree_nodeIS6_PvEElEESD_, symObjAddr: 0x774C, symBinAddr: 0x1000096E8, symSize: 0x30 }
  - { offsetInCU: 0xD73A, offset: 0xD73A, size: 0x8, addend: 0x0, symName: __ZNSt3__1eqB8ue170006ERKNS_19__hash_map_iteratorINS_15__hash_iteratorIPNS_11__hash_nodeINS_17__hash_value_typeINS_12basic_stringIcNS_11char_traitsIcEENS_9allocatorIcEEEES9_EEPvEEEEEESH_, symObjAddr: 0x77BC, symBinAddr: 0x100009758, symSize: 0x30 }
  - { offsetInCU: 0xD777, offset: 0xD777, size: 0x8, addend: 0x0, symName: __ZNSt3__120__throw_out_of_rangeB8ue170006EPKc, symObjAddr: 0x7824, symBinAddr: 0x1000097C0, symSize: 0x64 }
  - { offsetInCU: 0xD7A1, offset: 0xD7A1, size: 0x8, addend: 0x0, symName: __ZNSt3__1eqB8ue170006ERKNS_15__hash_iteratorIPNS_11__hash_nodeINS_17__hash_value_typeINS_12basic_stringIcNS_11char_traitsIcEENS_9allocatorIcEEEES8_EEPvEEEESF_, symObjAddr: 0x7A90, symBinAddr: 0x100009A2C, symSize: 0x30 }
  - { offsetInCU: 0xD844, offset: 0xD844, size: 0x8, addend: 0x0, symName: __ZNSt3__125__throw_bad_function_callB8ue170006Ev, symObjAddr: 0x7BF4, symBinAddr: 0x100009B90, symSize: 0x38 }
  - { offsetInCU: 0xD894, offset: 0xD894, size: 0x8, addend: 0x0, symName: __ZNSt3__116__pad_and_outputB8ue170006IcNS_11char_traitsIcEEEENS_19ostreambuf_iteratorIT_T0_EES6_PKS4_S8_S8_RNS_8ios_baseES4_, symObjAddr: 0x8010, symBinAddr: 0x100009FAC, symSize: 0x240 }
  - { offsetInCU: 0xD963, offset: 0xD963, size: 0x8, addend: 0x0, symName: __ZNSt3__112__to_addressB8ue170006IcEEPT_S2_, symObjAddr: 0x8480, symBinAddr: 0x10000A41C, symSize: 0x14 }
  - { offsetInCU: 0xD9CB, offset: 0xD9CB, size: 0x8, addend: 0x0, symName: __ZNSt3__19use_facetB8ue170006INS_5ctypeIcEEEERKT_RKNS_6localeE, symObjAddr: 0x8690, symBinAddr: 0x10000A62C, symSize: 0x2C }
  - { offsetInCU: 0xE366, offset: 0xE366, size: 0x8, addend: 0x0, symName: __ZSt28__throw_bad_array_new_lengthB8ue170006v, symObjAddr: 0x3B58, symBinAddr: 0x100005AF4, symSize: 0x34 }
  - { offsetInCU: 0x117FC, offset: 0x117FC, size: 0x8, addend: 0x0, symName: __ZN9ArgParserC2ENSt3__16vectorINS0_4pairINS0_12basic_stringIcNS0_11char_traitsIcEENS0_9allocatorIcEEEES8_EENS6_IS9_EEEESB_, symObjAddr: 0x0, symBinAddr: 0x100001F9C, symSize: 0x314 }
  - { offsetInCU: 0x118DE, offset: 0x118DE, size: 0x8, addend: 0x0, symName: __ZNSt3__13setINS_12basic_stringIcNS_11char_traitsIcEENS_9allocatorIcEEEENS_4lessIS6_EENS4_IS6_EEEC1B8ue170006Ev, symObjAddr: 0x314, symBinAddr: 0x1000022B0, symSize: 0x2C }
  - { offsetInCU: 0x11908, offset: 0x11908, size: 0x8, addend: 0x0, symName: __ZNSt3__113unordered_mapINS_12basic_stringIcNS_11char_traitsIcEENS_9allocatorIcEEEES6_NS_4hashIS6_EENS_8equal_toIS6_EENS4_INS_4pairIKS6_S6_EEEEEC1B8ue170006Ev, symObjAddr: 0x340, symBinAddr: 0x1000022DC, symSize: 0x2C }
  - { offsetInCU: 0x11932, offset: 0x11932, size: 0x8, addend: 0x0, symName: __ZNSt3__16vectorINS_4pairINS_12basic_stringIcNS_11char_traitsIcEENS_9allocatorIcEEEES7_EENS5_IS8_EEE5beginB8ue170006Ev, symObjAddr: 0x36C, symBinAddr: 0x100002308, symSize: 0x30 }
  - { offsetInCU: 0x1195A, offset: 0x1195A, size: 0x8, addend: 0x0, symName: __ZNSt3__16vectorINS_4pairINS_12basic_stringIcNS_11char_traitsIcEENS_9allocatorIcEEEES7_EENS5_IS8_EEE3endB8ue170006Ev, symObjAddr: 0x39C, symBinAddr: 0x100002338, symSize: 0x30 }
  - { offsetInCU: 0x11982, offset: 0x11982, size: 0x8, addend: 0x0, symName: __ZNKSt3__111__wrap_iterIPNS_4pairINS_12basic_stringIcNS_11char_traitsIcEENS_9allocatorIcEEEES7_EEEdeB8ue170006Ev, symObjAddr: 0x400, symBinAddr: 0x10000239C, symSize: 0x18 }
  - { offsetInCU: 0x119A8, offset: 0x119A8, size: 0x8, addend: 0x0, symName: __ZNSt3__14pairINS_12basic_stringIcNS_11char_traitsIcEENS_9allocatorIcEEEES6_EC1B8ue170006ERKS7_, symObjAddr: 0x418, symBinAddr: 0x1000023B4, symSize: 0x34 }
  - { offsetInCU: 0x119DD, offset: 0x119DD, size: 0x8, addend: 0x0, symName: __ZNSt3__13setINS_12basic_stringIcNS_11char_traitsIcEENS_9allocatorIcEEEENS_4lessIS6_EENS4_IS6_EEE6insertB8ue170006ERKS6_, symObjAddr: 0x44C, symBinAddr: 0x1000023E8, symSize: 0x4C }
  - { offsetInCU: 0x11A12, offset: 0x11A12, size: 0x8, addend: 0x0, symName: __ZNSt3__113unordered_mapINS_12basic_stringIcNS_11char_traitsIcEENS_9allocatorIcEEEES6_NS_4hashIS6_EENS_8equal_toIS6_EENS4_INS_4pairIKS6_S6_EEEEE7emplaceB8ue170006IJRS6_SH_EEENSB_INS_19__hash_map_iteratorINS_15__hash_iteratorIPNS_11__hash_nodeINS_17__hash_value_typeIS6_S6_EEPvEEEEEEbEEDpOT_, symObjAddr: 0x498, symBinAddr: 0x100002434, symSize: 0x54 }
  - { offsetInCU: 0x11A66, offset: 0x11A66, size: 0x8, addend: 0x0, symName: __ZNSt3__14pairINS_12basic_stringIcNS_11char_traitsIcEENS_9allocatorIcEEEES6_ED1Ev, symObjAddr: 0x4EC, symBinAddr: 0x100002488, symSize: 0x2C }
  - { offsetInCU: 0x11A92, offset: 0x11A92, size: 0x8, addend: 0x0, symName: __ZNSt3__111__wrap_iterIPNS_4pairINS_12basic_stringIcNS_11char_traitsIcEENS_9allocatorIcEEEES7_EEEppB8ue170006Ev, symObjAddr: 0x518, symBinAddr: 0x1000024B4, symSize: 0x20 }
  - { offsetInCU: 0x11AB8, offset: 0x11AB8, size: 0x8, addend: 0x0, symName: __ZNSt3__113unordered_mapINS_12basic_stringIcNS_11char_traitsIcEENS_9allocatorIcEEEES6_NS_4hashIS6_EENS_8equal_toIS6_EENS4_INS_4pairIKS6_S6_EEEEED1B8ue170006Ev, symObjAddr: 0x538, symBinAddr: 0x1000024D4, symSize: 0x2C }
  - { offsetInCU: 0x11AE2, offset: 0x11AE2, size: 0x8, addend: 0x0, symName: __ZNSt3__13setINS_12basic_stringIcNS_11char_traitsIcEENS_9allocatorIcEEEENS_4lessIS6_EENS4_IS6_EEED1B8ue170006Ev, symObjAddr: 0x564, symBinAddr: 0x100002500, symSize: 0x2C }
  - { offsetInCU: 0x11B0C, offset: 0x11B0C, size: 0x8, addend: 0x0, symName: __ZN9ArgParserC1ENSt3__16vectorINS0_4pairINS0_12basic_stringIcNS0_11char_traitsIcEENS0_9allocatorIcEEEES8_EENS6_IS9_EEEESB_, symObjAddr: 0x590, symBinAddr: 0x10000252C, symSize: 0x3C }
  - { offsetInCU: 0x11B56, offset: 0x11B56, size: 0x8, addend: 0x0, symName: __ZN9ArgParser5toKeyENSt3__112basic_stringIcNS0_11char_traitsIcEENS0_9allocatorIcEEEE, symObjAddr: 0x5CC, symBinAddr: 0x100002568, symSize: 0x13C }
  - { offsetInCU: 0x11B8C, offset: 0x11B8C, size: 0x8, addend: 0x0, symName: __ZNKSt3__112basic_stringIcNS_11char_traitsIcEENS_9allocatorIcEEE4findB8ue170006EPKcm, symObjAddr: 0x708, symBinAddr: 0x1000026A4, symSize: 0x74 }
  - { offsetInCU: 0x11BD2, offset: 0x11BD2, size: 0x8, addend: 0x0, symName: __ZNKSt3__112basic_stringIcNS_11char_traitsIcEENS_9allocatorIcEEE6substrB8ue170006Emm, symObjAddr: 0x77C, symBinAddr: 0x100002718, symSize: 0x68 }
  - { offsetInCU: 0x11C16, offset: 0x11C16, size: 0x8, addend: 0x0, symName: __ZNKSt3__112basic_stringIcNS_11char_traitsIcEENS_9allocatorIcEEE6lengthB8ue170006Ev, symObjAddr: 0x7E4, symBinAddr: 0x100002780, symSize: 0x24 }
  - { offsetInCU: 0x11C3C, offset: 0x11C3C, size: 0x8, addend: 0x0, symName: __ZNSt3__18optionalINS_12basic_stringIcNS_11char_traitsIcEENS_9allocatorIcEEEEEC1B8ue170006IS6_Li0EEEOT_, symObjAddr: 0x808, symBinAddr: 0x1000027A4, symSize: 0x34 }
  - { offsetInCU: 0x11C84, offset: 0x11C84, size: 0x8, addend: 0x0, symName: __ZNSt3__18optionalINS_12basic_stringIcNS_11char_traitsIcEENS_9allocatorIcEEEEEC1B8ue170006ENS_9nullopt_tE, symObjAddr: 0x83C, symBinAddr: 0x1000027D8, symSize: 0x2C }
  - { offsetInCU: 0x11CBA, offset: 0x11CBA, size: 0x8, addend: 0x0, symName: __ZN9ArgParser5parseEiPPcNSt3__18functionIFbNS2_12basic_stringIcNS2_11char_traitsIcEENS2_9allocatorIcEEEES9_EEENS3_IFbS9_EEE, symObjAddr: 0x868, symBinAddr: 0x100002804, symSize: 0x5D8 }
  - { offsetInCU: 0x11DA3, offset: 0x11DA3, size: 0x8, addend: 0x0, symName: __ZNSt3__112basic_stringIcNS_11char_traitsIcEENS_9allocatorIcEEEC1B8ue170006ILi0EEEPKc, symObjAddr: 0xE40, symBinAddr: 0x100002DDC, symSize: 0x34 }
  - { offsetInCU: 0x11DE2, offset: 0x11DE2, size: 0x8, addend: 0x0, symName: __ZNKSt3__123__optional_storage_baseINS_12basic_stringIcNS_11char_traitsIcEENS_9allocatorIcEEEELb0EE9has_valueB8ue170006Ev, symObjAddr: 0xE74, symBinAddr: 0x100002E10, symSize: 0x1C }
  - { offsetInCU: 0x11E08, offset: 0x11E08, size: 0x8, addend: 0x0, symName: __ZNSt3__13setINS_12basic_stringIcNS_11char_traitsIcEENS_9allocatorIcEEEENS_4lessIS6_EENS4_IS6_EEE4findB8ue170006ERKS6_, symObjAddr: 0xEC4, symBinAddr: 0x100002E60, symSize: 0x40 }
  - { offsetInCU: 0x11E3D, offset: 0x11E3D, size: 0x8, addend: 0x0, symName: __ZNRSt3__18optionalINS_12basic_stringIcNS_11char_traitsIcEENS_9allocatorIcEEEEE5valueB8ue170006Ev, symObjAddr: 0xF04, symBinAddr: 0x100002EA0, symSize: 0x3C }
  - { offsetInCU: 0x11E63, offset: 0x11E63, size: 0x8, addend: 0x0, symName: __ZNSt3__13setINS_12basic_stringIcNS_11char_traitsIcEENS_9allocatorIcEEEENS_4lessIS6_EENS4_IS6_EEE3endB8ue170006Ev, symObjAddr: 0xF40, symBinAddr: 0x100002EDC, symSize: 0x38 }
  - { offsetInCU: 0x11E89, offset: 0x11E89, size: 0x8, addend: 0x0, symName: __ZNKSt3__18functionIFbNS_12basic_stringIcNS_11char_traitsIcEENS_9allocatorIcEEEEEEclES6_, symObjAddr: 0xF78, symBinAddr: 0x100002F14, symSize: 0x30 }
  - { offsetInCU: 0x11EC1, offset: 0x11EC1, size: 0x8, addend: 0x0, symName: __ZNSt3__113unordered_mapINS_12basic_stringIcNS_11char_traitsIcEENS_9allocatorIcEEEES6_NS_4hashIS6_EENS_8equal_toIS6_EENS4_INS_4pairIKS6_S6_EEEEE2atERSC_, symObjAddr: 0xFA8, symBinAddr: 0x100002F44, symSize: 0x7C }
  - { offsetInCU: 0x11F07, offset: 0x11F07, size: 0x8, addend: 0x0, symName: __ZNSt3__18optionalINS_12basic_stringIcNS_11char_traitsIcEENS_9allocatorIcEEEEEaSB8ue170006IRS6_vEERS7_OT_, symObjAddr: 0x1024, symBinAddr: 0x100002FC0, symSize: 0x64 }
  - { offsetInCU: 0x11F46, offset: 0x11F46, size: 0x8, addend: 0x0, symName: __ZNKSt3__18functionIFbNS_12basic_stringIcNS_11char_traitsIcEENS_9allocatorIcEEEES6_EEclES6_S6_, symObjAddr: 0x1088, symBinAddr: 0x100003024, symSize: 0x38 }
  - { offsetInCU: 0x11F8E, offset: 0x11F8E, size: 0x8, addend: 0x0, symName: __ZNSt3__18optionalINS_12basic_stringIcNS_11char_traitsIcEENS_9allocatorIcEEEEEaSB8ue170006ENS_9nullopt_tE, symObjAddr: 0x10C0, symBinAddr: 0x10000305C, symSize: 0x2C }
  - { offsetInCU: 0x11FC0, offset: 0x11FC0, size: 0x8, addend: 0x0, symName: __ZNSt3__113basic_ostreamIcNS_11char_traitsIcEEElsB8ue170006EPFRS3_S4_E, symObjAddr: 0x1180, symBinAddr: 0x10000311C, symSize: 0x2C }
  - { offsetInCU: 0x11FF4, offset: 0x11FF4, size: 0x8, addend: 0x0, symName: __ZNSt3__18optionalINS_12basic_stringIcNS_11char_traitsIcEENS_9allocatorIcEEEEED1Ev, symObjAddr: 0x1204, symBinAddr: 0x1000031A0, symSize: 0x2C }
  - { offsetInCU: 0x12021, offset: 0x12021, size: 0x8, addend: 0x0, symName: __ZNKSt3__111__wrap_iterIPNS_4pairINS_12basic_stringIcNS_11char_traitsIcEENS_9allocatorIcEEEES7_EEE4baseB8ue170006Ev, symObjAddr: 0x1278, symBinAddr: 0x100003214, symSize: 0x18 }
  - { offsetInCU: 0x12047, offset: 0x12047, size: 0x8, addend: 0x0, symName: __ZNSt3__14pairINS_12basic_stringIcNS_11char_traitsIcEENS_9allocatorIcEEEES6_EC2B8ue170006ERKS7_, symObjAddr: 0x1290, symBinAddr: 0x10000322C, symSize: 0x70 }
  - { offsetInCU: 0x1207C, offset: 0x1207C, size: 0x8, addend: 0x0, symName: __ZNSt3__14pairINS_12basic_stringIcNS_11char_traitsIcEENS_9allocatorIcEEEES6_ED2Ev, symObjAddr: 0x1300, symBinAddr: 0x10000329C, symSize: 0x38 }
  - { offsetInCU: 0x120A8, offset: 0x120A8, size: 0x8, addend: 0x0, symName: __ZNSt3__18optionalINS_12basic_stringIcNS_11char_traitsIcEENS_9allocatorIcEEEEEC2B8ue170006IS6_Li0EEEOT_, symObjAddr: 0x1338, symBinAddr: 0x1000032D4, symSize: 0x34 }
  - { offsetInCU: 0x120F0, offset: 0x120F0, size: 0x8, addend: 0x0, symName: __ZNSt3__127__optional_move_assign_baseINS_12basic_stringIcNS_11char_traitsIcEENS_9allocatorIcEEEELb0EECI2NS_24__optional_destruct_baseIS6_Lb0EEEIJS6_EEENS_10in_place_tEDpOT_, symObjAddr: 0x136C, symBinAddr: 0x100003308, symSize: 0x34 }
  - { offsetInCU: 0x1212F, offset: 0x1212F, size: 0x8, addend: 0x0, symName: __ZNSt3__127__optional_copy_assign_baseINS_12basic_stringIcNS_11char_traitsIcEENS_9allocatorIcEEEELb0EECI2NS_24__optional_destruct_baseIS6_Lb0EEEIJS6_EEENS_10in_place_tEDpOT_, symObjAddr: 0x13A0, symBinAddr: 0x10000333C, symSize: 0x34 }
  - { offsetInCU: 0x1216E, offset: 0x1216E, size: 0x8, addend: 0x0, symName: __ZNSt3__120__optional_move_baseINS_12basic_stringIcNS_11char_traitsIcEENS_9allocatorIcEEEELb0EECI2NS_24__optional_destruct_baseIS6_Lb0EEEIJS6_EEENS_10in_place_tEDpOT_, symObjAddr: 0x13D4, symBinAddr: 0x100003370, symSize: 0x34 }
  - { offsetInCU: 0x121AD, offset: 0x121AD, size: 0x8, addend: 0x0, symName: __ZNSt3__120__optional_copy_baseINS_12basic_stringIcNS_11char_traitsIcEENS_9allocatorIcEEEELb0EECI2NS_24__optional_destruct_baseIS6_Lb0EEEIJS6_EEENS_10in_place_tEDpOT_, symObjAddr: 0x1408, symBinAddr: 0x1000033A4, symSize: 0x34 }
  - { offsetInCU: 0x121EC, offset: 0x121EC, size: 0x8, addend: 0x0, symName: __ZNSt3__123__optional_storage_baseINS_12basic_stringIcNS_11char_traitsIcEENS_9allocatorIcEEEELb0EECI2NS_24__optional_destruct_baseIS6_Lb0EEEIJS6_EEENS_10in_place_tEDpOT_, symObjAddr: 0x143C, symBinAddr: 0x1000033D8, symSize: 0x34 }
  - { offsetInCU: 0x1222B, offset: 0x1222B, size: 0x8, addend: 0x0, symName: __ZNSt3__124__optional_destruct_baseINS_12basic_stringIcNS_11char_traitsIcEENS_9allocatorIcEEEELb0EEC2B8ue170006IJS6_EEENS_10in_place_tEDpOT_, symObjAddr: 0x1470, symBinAddr: 0x10000340C, symSize: 0x3C }
  - { offsetInCU: 0x1227B, offset: 0x1227B, size: 0x8, addend: 0x0, symName: __ZNSt3__112basic_stringIcNS_11char_traitsIcEENS_9allocatorIcEEEC1B8ue170006EOS5_, symObjAddr: 0x14AC, symBinAddr: 0x100003448, symSize: 0x34 }
  - { offsetInCU: 0x122B4, offset: 0x122B4, size: 0x8, addend: 0x0, symName: __ZNSt3__112basic_stringIcNS_11char_traitsIcEENS_9allocatorIcEEEC2B8ue170006EOS5_, symObjAddr: 0x14E0, symBinAddr: 0x10000347C, symSize: 0x50 }
  - { offsetInCU: 0x122ED, offset: 0x122ED, size: 0x8, addend: 0x0, symName: __ZNSt3__112basic_stringIcNS_11char_traitsIcEENS_9allocatorIcEEE14__default_initB8ue170006Ev, symObjAddr: 0x1530, symBinAddr: 0x1000034CC, symSize: 0x40 }
  - { offsetInCU: 0x12313, offset: 0x12313, size: 0x8, addend: 0x0, symName: __ZNSt3__117__compressed_pairINS_12basic_stringIcNS_11char_traitsIcEENS_9allocatorIcEEE5__repES5_E5firstB8ue170006Ev, symObjAddr: 0x157C, symBinAddr: 0x100003518, symSize: 0x24 }
  - { offsetInCU: 0x12339, offset: 0x12339, size: 0x8, addend: 0x0, symName: __ZNSt3__122__compressed_pair_elemINS_12basic_stringIcNS_11char_traitsIcEENS_9allocatorIcEEE5__repELi0ELb0EE5__getB8ue170006Ev, symObjAddr: 0x15A0, symBinAddr: 0x10000353C, symSize: 0x14 }
  - { offsetInCU: 0x1235F, offset: 0x1235F, size: 0x8, addend: 0x0, symName: __ZNSt3__18optionalINS_12basic_stringIcNS_11char_traitsIcEENS_9allocatorIcEEEEEC2B8ue170006ENS_9nullopt_tE, symObjAddr: 0x15B4, symBinAddr: 0x100003550, symSize: 0x2C }
  - { offsetInCU: 0x12395, offset: 0x12395, size: 0x8, addend: 0x0, symName: __ZNSt3__127__optional_move_assign_baseINS_12basic_stringIcNS_11char_traitsIcEENS_9allocatorIcEEEELb0EEC2B8ue170006Ev, symObjAddr: 0x15E0, symBinAddr: 0x10000357C, symSize: 0x2C }
  - { offsetInCU: 0x123BF, offset: 0x123BF, size: 0x8, addend: 0x0, symName: __ZNSt3__127__optional_copy_assign_baseINS_12basic_stringIcNS_11char_traitsIcEENS_9allocatorIcEEEELb0EEC2B8ue170006Ev, symObjAddr: 0x160C, symBinAddr: 0x1000035A8, symSize: 0x2C }
  - { offsetInCU: 0x123E9, offset: 0x123E9, size: 0x8, addend: 0x0, symName: __ZNSt3__120__optional_move_baseINS_12basic_stringIcNS_11char_traitsIcEENS_9allocatorIcEEEELb0EEC2B8ue170006Ev, symObjAddr: 0x1638, symBinAddr: 0x1000035D4, symSize: 0x2C }
  - { offsetInCU: 0x12413, offset: 0x12413, size: 0x8, addend: 0x0, symName: __ZNSt3__120__optional_copy_baseINS_12basic_stringIcNS_11char_traitsIcEENS_9allocatorIcEEEELb0EEC2B8ue170006Ev, symObjAddr: 0x1664, symBinAddr: 0x100003600, symSize: 0x2C }
  - { offsetInCU: 0x1243D, offset: 0x1243D, size: 0x8, addend: 0x0, symName: __ZNSt3__123__optional_storage_baseINS_12basic_stringIcNS_11char_traitsIcEENS_9allocatorIcEEEELb0EEC2Ev, symObjAddr: 0x1690, symBinAddr: 0x10000362C, symSize: 0x2C }
  - { offsetInCU: 0x1246A, offset: 0x1246A, size: 0x8, addend: 0x0, symName: __ZNSt3__124__optional_destruct_baseINS_12basic_stringIcNS_11char_traitsIcEENS_9allocatorIcEEEELb0EEC2B8ue170006Ev, symObjAddr: 0x16BC, symBinAddr: 0x100003658, symSize: 0x1C }
  - { offsetInCU: 0x12494, offset: 0x12494, size: 0x8, addend: 0x0, symName: __ZNRSt3__123__optional_storage_baseINS_12basic_stringIcNS_11char_traitsIcEENS_9allocatorIcEEEELb0EE5__getB8ue170006Ev, symObjAddr: 0x1710, symBinAddr: 0x1000036AC, symSize: 0x14 }
  - { offsetInCU: 0x124C9, offset: 0x124C9, size: 0x8, addend: 0x0, symName: __ZNSt19bad_optional_accessC1Ev, symObjAddr: 0x1724, symBinAddr: 0x1000036C0, symSize: 0x2C }
  - { offsetInCU: 0x124F5, offset: 0x124F5, size: 0x8, addend: 0x0, symName: __ZNSt19bad_optional_accessC2Ev, symObjAddr: 0x1750, symBinAddr: 0x1000036EC, symSize: 0x44 }
  - { offsetInCU: 0x12521, offset: 0x12521, size: 0x8, addend: 0x0, symName: __ZNSt9exceptionC2B8ue170006Ev, symObjAddr: 0x1794, symBinAddr: 0x100003730, symSize: 0x24 }
  - { offsetInCU: 0x1254B, offset: 0x1254B, size: 0x8, addend: 0x0, symName: __ZNSt3__18optionalINS_12basic_stringIcNS_11char_traitsIcEENS_9allocatorIcEEEEED2Ev, symObjAddr: 0x17B8, symBinAddr: 0x100003754, symSize: 0x2C }
  - { offsetInCU: 0x12578, offset: 0x12578, size: 0x8, addend: 0x0, symName: __ZNSt3__127__optional_move_assign_baseINS_12basic_stringIcNS_11char_traitsIcEENS_9allocatorIcEEEELb0EED2Ev, symObjAddr: 0x17E4, symBinAddr: 0x100003780, symSize: 0x2C }
  - { offsetInCU: 0x125A5, offset: 0x125A5, size: 0x8, addend: 0x0, symName: __ZNSt3__127__optional_copy_assign_baseINS_12basic_stringIcNS_11char_traitsIcEENS_9allocatorIcEEEELb0EED2Ev, symObjAddr: 0x1810, symBinAddr: 0x1000037AC, symSize: 0x2C }
  - { offsetInCU: 0x125D2, offset: 0x125D2, size: 0x8, addend: 0x0, symName: __ZNSt3__120__optional_move_baseINS_12basic_stringIcNS_11char_traitsIcEENS_9allocatorIcEEEELb0EED2Ev, symObjAddr: 0x183C, symBinAddr: 0x1000037D8, symSize: 0x2C }
  - { offsetInCU: 0x125FF, offset: 0x125FF, size: 0x8, addend: 0x0, symName: __ZNSt3__120__optional_copy_baseINS_12basic_stringIcNS_11char_traitsIcEENS_9allocatorIcEEEELb0EED2Ev, symObjAddr: 0x1868, symBinAddr: 0x100003804, symSize: 0x2C }
  - { offsetInCU: 0x1262C, offset: 0x1262C, size: 0x8, addend: 0x0, symName: __ZNSt3__123__optional_storage_baseINS_12basic_stringIcNS_11char_traitsIcEENS_9allocatorIcEEEELb0EED2Ev, symObjAddr: 0x1894, symBinAddr: 0x100003830, symSize: 0x2C }
  - { offsetInCU: 0x12659, offset: 0x12659, size: 0x8, addend: 0x0, symName: __ZNSt3__124__optional_destruct_baseINS_12basic_stringIcNS_11char_traitsIcEENS_9allocatorIcEEEELb0EED2B8ue170006Ev, symObjAddr: 0x18C0, symBinAddr: 0x10000385C, symSize: 0x48 }
  - { offsetInCU: 0x12683, offset: 0x12683, size: 0x8, addend: 0x0, symName: __ZNSt3__13setINS_12basic_stringIcNS_11char_traitsIcEENS_9allocatorIcEEEENS_4lessIS6_EENS4_IS6_EEEC2B8ue170006Ev, symObjAddr: 0x1908, symBinAddr: 0x1000038A4, symSize: 0x30 }
  - { offsetInCU: 0x126AD, offset: 0x126AD, size: 0x8, addend: 0x0, symName: __ZNSt3__16__treeINS_12basic_stringIcNS_11char_traitsIcEENS_9allocatorIcEEEENS_4lessIS6_EENS4_IS6_EEEC1ERKS8_, symObjAddr: 0x1938, symBinAddr: 0x1000038D4, symSize: 0x34 }
  - { offsetInCU: 0x126E8, offset: 0x126E8, size: 0x8, addend: 0x0, symName: __ZNSt3__16__treeINS_12basic_stringIcNS_11char_traitsIcEENS_9allocatorIcEEEENS_4lessIS6_EENS4_IS6_EEEC2ERKS8_, symObjAddr: 0x196C, symBinAddr: 0x100003908, symSize: 0x7C }
  - { offsetInCU: 0x12723, offset: 0x12723, size: 0x8, addend: 0x0, symName: __ZNSt3__117__compressed_pairINS_15__tree_end_nodeIPNS_16__tree_node_baseIPvEEEENS_9allocatorINS_11__tree_nodeINS_12basic_stringIcNS_11char_traitsIcEENS7_IcEEEES3_EEEEEC1B8ue170006ILb1EvEEv, symObjAddr: 0x19E8, symBinAddr: 0x100003984, symSize: 0x2C }
  - { offsetInCU: 0x1275E, offset: 0x1275E, size: 0x8, addend: 0x0, symName: __ZNSt3__117__compressed_pairImNS_4lessINS_12basic_stringIcNS_11char_traitsIcEENS_9allocatorIcEEEEEEEC1B8ue170006IiRKS8_EEOT_OT0_, symObjAddr: 0x1A14, symBinAddr: 0x1000039B0, symSize: 0x3C }
  - { offsetInCU: 0x127B6, offset: 0x127B6, size: 0x8, addend: 0x0, symName: __ZNSt3__16__treeINS_12basic_stringIcNS_11char_traitsIcEENS_9allocatorIcEEEENS_4lessIS6_EENS4_IS6_EEE10__end_nodeB8ue170006Ev, symObjAddr: 0x1A50, symBinAddr: 0x1000039EC, symSize: 0x2C }
  - { offsetInCU: 0x127DC, offset: 0x127DC, size: 0x8, addend: 0x0, symName: __ZNSt3__16__treeINS_12basic_stringIcNS_11char_traitsIcEENS_9allocatorIcEEEENS_4lessIS6_EENS4_IS6_EEE12__begin_nodeB8ue170006Ev, symObjAddr: 0x1A7C, symBinAddr: 0x100003A18, symSize: 0x14 }
  - { offsetInCU: 0x12802, offset: 0x12802, size: 0x8, addend: 0x0, symName: __ZNSt3__117__compressed_pairINS_15__tree_end_nodeIPNS_16__tree_node_baseIPvEEEENS_9allocatorINS_11__tree_nodeINS_12basic_stringIcNS_11char_traitsIcEENS7_IcEEEES3_EEEEEC2B8ue170006ILb1EvEEv, symObjAddr: 0x1A90, symBinAddr: 0x100003A2C, symSize: 0x34 }
  - { offsetInCU: 0x12837, offset: 0x12837, size: 0x8, addend: 0x0, symName: __ZNSt3__122__compressed_pair_elemINS_15__tree_end_nodeIPNS_16__tree_node_baseIPvEEEELi0ELb0EEC2B8ue170006ENS_16__value_init_tagE, symObjAddr: 0x1AC4, symBinAddr: 0x100003A60, symSize: 0x2C }
  - { offsetInCU: 0x1286C, offset: 0x1286C, size: 0x8, addend: 0x0, symName: __ZNSt3__122__compressed_pair_elemINS_9allocatorINS_11__tree_nodeINS_12basic_stringIcNS_11char_traitsIcEENS1_IcEEEEPvEEEELi1ELb1EEC2B8ue170006ENS_16__value_init_tagE, symObjAddr: 0x1AF0, symBinAddr: 0x100003A8C, symSize: 0x2C }
  - { offsetInCU: 0x128A1, offset: 0x128A1, size: 0x8, addend: 0x0, symName: __ZNSt3__115__tree_end_nodeIPNS_16__tree_node_baseIPvEEEC1B8ue170006Ev, symObjAddr: 0x1B1C, symBinAddr: 0x100003AB8, symSize: 0x2C }
  - { offsetInCU: 0x128CB, offset: 0x128CB, size: 0x8, addend: 0x0, symName: __ZNSt3__115__tree_end_nodeIPNS_16__tree_node_baseIPvEEEC2B8ue170006Ev, symObjAddr: 0x1B48, symBinAddr: 0x100003AE4, symSize: 0x18 }
  - { offsetInCU: 0x128F5, offset: 0x128F5, size: 0x8, addend: 0x0, symName: __ZNSt3__19allocatorINS_11__tree_nodeINS_12basic_stringIcNS_11char_traitsIcEENS0_IcEEEEPvEEEC2B8ue170006Ev, symObjAddr: 0x1B60, symBinAddr: 0x100003AFC, symSize: 0x2C }
  - { offsetInCU: 0x1291F, offset: 0x1291F, size: 0x8, addend: 0x0, symName: __ZNSt3__116__non_trivial_ifILb1ENS_9allocatorINS_11__tree_nodeINS_12basic_stringIcNS_11char_traitsIcEENS1_IcEEEEPvEEEEEC2B8ue170006Ev, symObjAddr: 0x1B8C, symBinAddr: 0x100003B28, symSize: 0x14 }
  - { offsetInCU: 0x12949, offset: 0x12949, size: 0x8, addend: 0x0, symName: __ZNSt3__117__compressed_pairImNS_4lessINS_12basic_stringIcNS_11char_traitsIcEENS_9allocatorIcEEEEEEEC2B8ue170006IiRKS8_EEOT_OT0_, symObjAddr: 0x1BA0, symBinAddr: 0x100003B3C, symSize: 0x44 }
  - { offsetInCU: 0x129A1, offset: 0x129A1, size: 0x8, addend: 0x0, symName: __ZNSt3__122__compressed_pair_elemImLi0ELb0EEC2B8ue170006IivEEOT_, symObjAddr: 0x1BE4, symBinAddr: 0x100003B80, symSize: 0x24 }
  - { offsetInCU: 0x129E3, offset: 0x129E3, size: 0x8, addend: 0x0, symName: __ZNSt3__122__compressed_pair_elemINS_4lessINS_12basic_stringIcNS_11char_traitsIcEENS_9allocatorIcEEEEEELi1ELb1EEC2B8ue170006IRKS8_vEEOT_, symObjAddr: 0x1C08, symBinAddr: 0x100003BA4, symSize: 0x18 }
  - { offsetInCU: 0x12A25, offset: 0x12A25, size: 0x8, addend: 0x0, symName: __ZNSt3__114pointer_traitsIPNS_15__tree_end_nodeIPNS_16__tree_node_baseIPvEEEEE10pointer_toB8ue170006ERS6_, symObjAddr: 0x1C20, symBinAddr: 0x100003BBC, symSize: 0x14 }
  - { offsetInCU: 0x12A48, offset: 0x12A48, size: 0x8, addend: 0x0, symName: __ZNSt3__117__compressed_pairINS_15__tree_end_nodeIPNS_16__tree_node_baseIPvEEEENS_9allocatorINS_11__tree_nodeINS_12basic_stringIcNS_11char_traitsIcEENS7_IcEEEES3_EEEEE5firstB8ue170006Ev, symObjAddr: 0x1C34, symBinAddr: 0x100003BD0, symSize: 0x24 }
  - { offsetInCU: 0x12A6E, offset: 0x12A6E, size: 0x8, addend: 0x0, symName: __ZNSt3__122__compressed_pair_elemINS_15__tree_end_nodeIPNS_16__tree_node_baseIPvEEEELi0ELb0EE5__getB8ue170006Ev, symObjAddr: 0x1C58, symBinAddr: 0x100003BF4, symSize: 0x14 }
  - { offsetInCU: 0x12A94, offset: 0x12A94, size: 0x8, addend: 0x0, symName: __ZNSt3__113unordered_mapINS_12basic_stringIcNS_11char_traitsIcEENS_9allocatorIcEEEES6_NS_4hashIS6_EENS_8equal_toIS6_EENS4_INS_4pairIKS6_S6_EEEEEC2B8ue170006Ev, symObjAddr: 0x1C6C, symBinAddr: 0x100003C08, symSize: 0x2C }
  - { offsetInCU: 0x12ABE, offset: 0x12ABE, size: 0x8, addend: 0x0, symName: __ZNSt3__112__hash_tableINS_17__hash_value_typeINS_12basic_stringIcNS_11char_traitsIcEENS_9allocatorIcEEEES7_EENS_22__unordered_map_hasherIS7_S8_NS_4hashIS7_EENS_8equal_toIS7_EELb1EEENS_21__unordered_map_equalIS7_S8_SD_SB_Lb1EEENS5_IS8_EEEC1Ev, symObjAddr: 0x1C98, symBinAddr: 0x100003C34, symSize: 0x2C }
  - { offsetInCU: 0x12AEA, offset: 0x12AEA, size: 0x8, addend: 0x0, symName: __ZNSt3__112__hash_tableINS_17__hash_value_typeINS_12basic_stringIcNS_11char_traitsIcEENS_9allocatorIcEEEES7_EENS_22__unordered_map_hasherIS7_S8_NS_4hashIS7_EENS_8equal_toIS7_EELb1EEENS_21__unordered_map_equalIS7_S8_SD_SB_Lb1EEENS5_IS8_EEEC2Ev, symObjAddr: 0x1CC4, symBinAddr: 0x100003C60, symSize: 0x7C }
  - { offsetInCU: 0x12B16, offset: 0x12B16, size: 0x8, addend: 0x0, symName: __ZNSt3__110unique_ptrIA_PNS_16__hash_node_baseIPNS_11__hash_nodeINS_17__hash_value_typeINS_12basic_stringIcNS_11char_traitsIcEENS_9allocatorIcEEEES9_EEPvEEEENS_25__bucket_list_deallocatorINS7_ISF_EEEEEC1B8ue170006ILb1EvEEv, symObjAddr: 0x1D40, symBinAddr: 0x100003CDC, symSize: 0x2C }
  - { offsetInCU: 0x12B4B, offset: 0x12B4B, size: 0x8, addend: 0x0, symName: __ZNSt3__117__compressed_pairINS_16__hash_node_baseIPNS_11__hash_nodeINS_17__hash_value_typeINS_12basic_stringIcNS_11char_traitsIcEENS_9allocatorIcEEEES9_EEPvEEEENS7_ISC_EEEC1B8ue170006ILb1EvEEv, symObjAddr: 0x1D6C, symBinAddr: 0x100003D08, symSize: 0x2C }
  - { offsetInCU: 0x12B86, offset: 0x12B86, size: 0x8, addend: 0x0, symName: __ZNSt3__117__compressed_pairImNS_22__unordered_map_hasherINS_12basic_stringIcNS_11char_traitsIcEENS_9allocatorIcEEEENS_17__hash_value_typeIS7_S7_EENS_4hashIS7_EENS_8equal_toIS7_EELb1EEEEC1B8ue170006IiNS_18__default_init_tagEEEOT_OT0_, symObjAddr: 0x1D98, symBinAddr: 0x100003D34, symSize: 0x3C }
  - { offsetInCU: 0x12BE4, offset: 0x12BE4, size: 0x8, addend: 0x0, symName: __ZNSt3__117__compressed_pairIfNS_21__unordered_map_equalINS_12basic_stringIcNS_11char_traitsIcEENS_9allocatorIcEEEENS_17__hash_value_typeIS7_S7_EENS_8equal_toIS7_EENS_4hashIS7_EELb1EEEEC1B8ue170006IfNS_18__default_init_tagEEEOT_OT0_, symObjAddr: 0x1DD4, symBinAddr: 0x100003D70, symSize: 0x3C }
  - { offsetInCU: 0x12C3C, offset: 0x12C3C, size: 0x8, addend: 0x0, symName: __ZNSt3__110unique_ptrIA_PNS_16__hash_node_baseIPNS_11__hash_nodeINS_17__hash_value_typeINS_12basic_stringIcNS_11char_traitsIcEENS_9allocatorIcEEEES9_EEPvEEEENS_25__bucket_list_deallocatorINS7_ISF_EEEEEC2B8ue170006ILb1EvEEv, symObjAddr: 0x1E10, symBinAddr: 0x100003DAC, symSize: 0x3C }
  - { offsetInCU: 0x12C77, offset: 0x12C77, size: 0x8, addend: 0x0, symName: __ZNSt3__117__compressed_pairIPPNS_16__hash_node_baseIPNS_11__hash_nodeINS_17__hash_value_typeINS_12basic_stringIcNS_11char_traitsIcEENS_9allocatorIcEEEES9_EEPvEEEENS_25__bucket_list_deallocatorINS7_ISF_EEEEEC1B8ue170006INS_16__value_init_tagESM_EEOT_OT0_, symObjAddr: 0x1E4C, symBinAddr: 0x100003DE8, symSize: 0x3C }
  - { offsetInCU: 0x12CCF, offset: 0x12CCF, size: 0x8, addend: 0x0, symName: __ZNSt3__117__compressed_pairIPPNS_16__hash_node_baseIPNS_11__hash_nodeINS_17__hash_value_typeINS_12basic_stringIcNS_11char_traitsIcEENS_9allocatorIcEEEES9_EEPvEEEENS_25__bucket_list_deallocatorINS7_ISF_EEEEEC2B8ue170006INS_16__value_init_tagESM_EEOT_OT0_, symObjAddr: 0x1E88, symBinAddr: 0x100003E24, symSize: 0x40 }
  - { offsetInCU: 0x12D27, offset: 0x12D27, size: 0x8, addend: 0x0, symName: __ZNSt3__122__compressed_pair_elemIPPNS_16__hash_node_baseIPNS_11__hash_nodeINS_17__hash_value_typeINS_12basic_stringIcNS_11char_traitsIcEENS_9allocatorIcEEEES9_EEPvEEEELi0ELb0EEC2B8ue170006ENS_16__value_init_tagE, symObjAddr: 0x1EC8, symBinAddr: 0x100003E64, symSize: 0x18 }
  - { offsetInCU: 0x12D5C, offset: 0x12D5C, size: 0x8, addend: 0x0, symName: __ZNSt3__122__compressed_pair_elemINS_25__bucket_list_deallocatorINS_9allocatorIPNS_16__hash_node_baseIPNS_11__hash_nodeINS_17__hash_value_typeINS_12basic_stringIcNS_11char_traitsIcEENS2_IcEEEESA_EEPvEEEEEEEELi1ELb0EEC2B8ue170006ENS_16__value_init_tagE, symObjAddr: 0x1EE0, symBinAddr: 0x100003E7C, symSize: 0x2C }
  - { offsetInCU: 0x12D91, offset: 0x12D91, size: 0x8, addend: 0x0, symName: __ZNSt3__125__bucket_list_deallocatorINS_9allocatorIPNS_16__hash_node_baseIPNS_11__hash_nodeINS_17__hash_value_typeINS_12basic_stringIcNS_11char_traitsIcEENS1_IcEEEES9_EEPvEEEEEEEC1B8ue170006Ev, symObjAddr: 0x1F0C, symBinAddr: 0x100003EA8, symSize: 0x2C }
  - { offsetInCU: 0x12DBB, offset: 0x12DBB, size: 0x8, addend: 0x0, symName: __ZNSt3__125__bucket_list_deallocatorINS_9allocatorIPNS_16__hash_node_baseIPNS_11__hash_nodeINS_17__hash_value_typeINS_12basic_stringIcNS_11char_traitsIcEENS1_IcEEEES9_EEPvEEEEEEEC2B8ue170006Ev, symObjAddr: 0x1F38, symBinAddr: 0x100003ED4, symSize: 0x40 }
  - { offsetInCU: 0x12DE5, offset: 0x12DE5, size: 0x8, addend: 0x0, symName: __ZNSt3__117__compressed_pairImNS_9allocatorIPNS_16__hash_node_baseIPNS_11__hash_nodeINS_17__hash_value_typeINS_12basic_stringIcNS_11char_traitsIcEENS1_IcEEEES9_EEPvEEEEEEEC1B8ue170006IiNS_18__default_init_tagEEEOT_OT0_, symObjAddr: 0x1F78, symBinAddr: 0x100003F14, symSize: 0x3C }
  - { offsetInCU: 0x12E3D, offset: 0x12E3D, size: 0x8, addend: 0x0, symName: __ZNSt3__117__compressed_pairImNS_9allocatorIPNS_16__hash_node_baseIPNS_11__hash_nodeINS_17__hash_value_typeINS_12basic_stringIcNS_11char_traitsIcEENS1_IcEEEES9_EEPvEEEEEEEC2B8ue170006IiNS_18__default_init_tagEEEOT_OT0_, symObjAddr: 0x1FB4, symBinAddr: 0x100003F50, symSize: 0x40 }
  - { offsetInCU: 0x12E95, offset: 0x12E95, size: 0x8, addend: 0x0, symName: __ZNSt3__122__compressed_pair_elemINS_9allocatorIPNS_16__hash_node_baseIPNS_11__hash_nodeINS_17__hash_value_typeINS_12basic_stringIcNS_11char_traitsIcEENS1_IcEEEES9_EEPvEEEEEELi1ELb1EEC2B8ue170006ENS_18__default_init_tagE, symObjAddr: 0x1FF4, symBinAddr: 0x100003F90, symSize: 0x2C }
  - { offsetInCU: 0x12ECA, offset: 0x12ECA, size: 0x8, addend: 0x0, symName: __ZNSt3__19allocatorIPNS_16__hash_node_baseIPNS_11__hash_nodeINS_17__hash_value_typeINS_12basic_stringIcNS_11char_traitsIcEENS0_IcEEEES8_EEPvEEEEEC2B8ue170006Ev, symObjAddr: 0x2020, symBinAddr: 0x100003FBC, symSize: 0x2C }
  - { offsetInCU: 0x12EF4, offset: 0x12EF4, size: 0x8, addend: 0x0, symName: __ZNSt3__116__non_trivial_ifILb1ENS_9allocatorIPNS_16__hash_node_baseIPNS_11__hash_nodeINS_17__hash_value_typeINS_12basic_stringIcNS_11char_traitsIcEENS1_IcEEEES9_EEPvEEEEEEEC2B8ue170006Ev, symObjAddr: 0x204C, symBinAddr: 0x100003FE8, symSize: 0x14 }
  - { offsetInCU: 0x12F1E, offset: 0x12F1E, size: 0x8, addend: 0x0, symName: __ZNSt3__117__compressed_pairINS_16__hash_node_baseIPNS_11__hash_nodeINS_17__hash_value_typeINS_12basic_stringIcNS_11char_traitsIcEENS_9allocatorIcEEEES9_EEPvEEEENS7_ISC_EEEC2B8ue170006ILb1EvEEv, symObjAddr: 0x2060, symBinAddr: 0x100003FFC, symSize: 0x34 }
  - { offsetInCU: 0x12F53, offset: 0x12F53, size: 0x8, addend: 0x0, symName: __ZNSt3__122__compressed_pair_elemINS_16__hash_node_baseIPNS_11__hash_nodeINS_17__hash_value_typeINS_12basic_stringIcNS_11char_traitsIcEENS_9allocatorIcEEEES9_EEPvEEEELi0ELb0EEC2B8ue170006ENS_16__value_init_tagE, symObjAddr: 0x2094, symBinAddr: 0x100004030, symSize: 0x2C }
  - { offsetInCU: 0x12F88, offset: 0x12F88, size: 0x8, addend: 0x0, symName: __ZNSt3__122__compressed_pair_elemINS_9allocatorINS_11__hash_nodeINS_17__hash_value_typeINS_12basic_stringIcNS_11char_traitsIcEENS1_IcEEEES8_EEPvEEEELi1ELb1EEC2B8ue170006ENS_16__value_init_tagE, symObjAddr: 0x20C0, symBinAddr: 0x10000405C, symSize: 0x2C }
  - { offsetInCU: 0x12FBD, offset: 0x12FBD, size: 0x8, addend: 0x0, symName: __ZNSt3__116__hash_node_baseIPNS_11__hash_nodeINS_17__hash_value_typeINS_12basic_stringIcNS_11char_traitsIcEENS_9allocatorIcEEEES8_EEPvEEEC1B8ue170006Ev, symObjAddr: 0x20EC, symBinAddr: 0x100004088, symSize: 0x2C }
  - { offsetInCU: 0x12FE7, offset: 0x12FE7, size: 0x8, addend: 0x0, symName: __ZNSt3__116__hash_node_baseIPNS_11__hash_nodeINS_17__hash_value_typeINS_12basic_stringIcNS_11char_traitsIcEENS_9allocatorIcEEEES8_EEPvEEEC2B8ue170006Ev, symObjAddr: 0x2118, symBinAddr: 0x1000040B4, symSize: 0x18 }
  - { offsetInCU: 0x13011, offset: 0x13011, size: 0x8, addend: 0x0, symName: __ZNSt3__19allocatorINS_11__hash_nodeINS_17__hash_value_typeINS_12basic_stringIcNS_11char_traitsIcEENS0_IcEEEES7_EEPvEEEC2B8ue170006Ev, symObjAddr: 0x2130, symBinAddr: 0x1000040CC, symSize: 0x2C }
  - { offsetInCU: 0x1303B, offset: 0x1303B, size: 0x8, addend: 0x0, symName: __ZNSt3__116__non_trivial_ifILb1ENS_9allocatorINS_11__hash_nodeINS_17__hash_value_typeINS_12basic_stringIcNS_11char_traitsIcEENS1_IcEEEES8_EEPvEEEEEC2B8ue170006Ev, symObjAddr: 0x215C, symBinAddr: 0x1000040F8, symSize: 0x14 }
  - { offsetInCU: 0x13065, offset: 0x13065, size: 0x8, addend: 0x0, symName: __ZNSt3__117__compressed_pairImNS_22__unordered_map_hasherINS_12basic_stringIcNS_11char_traitsIcEENS_9allocatorIcEEEENS_17__hash_value_typeIS7_S7_EENS_4hashIS7_EENS_8equal_toIS7_EELb1EEEEC2B8ue170006IiNS_18__default_init_tagEEEOT_OT0_, symObjAddr: 0x2170, symBinAddr: 0x10000410C, symSize: 0x40 }
  - { offsetInCU: 0x130BD, offset: 0x130BD, size: 0x8, addend: 0x0, symName: __ZNSt3__122__compressed_pair_elemINS_22__unordered_map_hasherINS_12basic_stringIcNS_11char_traitsIcEENS_9allocatorIcEEEENS_17__hash_value_typeIS7_S7_EENS_4hashIS7_EENS_8equal_toIS7_EELb1EEELi1ELb1EEC2B8ue170006ENS_18__default_init_tagE, symObjAddr: 0x21B0, symBinAddr: 0x10000414C, symSize: 0x2C }
  - { offsetInCU: 0x130F2, offset: 0x130F2, size: 0x8, addend: 0x0, symName: __ZNSt3__122__unordered_map_hasherINS_12basic_stringIcNS_11char_traitsIcEENS_9allocatorIcEEEENS_17__hash_value_typeIS6_S6_EENS_4hashIS6_EENS_8equal_toIS6_EELb1EEC2B8ue170006Ev, symObjAddr: 0x21DC, symBinAddr: 0x100004178, symSize: 0x14 }
  - { offsetInCU: 0x1311C, offset: 0x1311C, size: 0x8, addend: 0x0, symName: __ZNSt3__117__compressed_pairIfNS_21__unordered_map_equalINS_12basic_stringIcNS_11char_traitsIcEENS_9allocatorIcEEEENS_17__hash_value_typeIS7_S7_EENS_8equal_toIS7_EENS_4hashIS7_EELb1EEEEC2B8ue170006IfNS_18__default_init_tagEEEOT_OT0_, symObjAddr: 0x21F0, symBinAddr: 0x10000418C, symSize: 0x40 }
  - { offsetInCU: 0x13174, offset: 0x13174, size: 0x8, addend: 0x0, symName: __ZNSt3__122__compressed_pair_elemIfLi0ELb0EEC2B8ue170006IfvEEOT_, symObjAddr: 0x2230, symBinAddr: 0x1000041CC, symSize: 0x24 }
  - { offsetInCU: 0x131B6, offset: 0x131B6, size: 0x8, addend: 0x0, symName: __ZNSt3__122__compressed_pair_elemINS_21__unordered_map_equalINS_12basic_stringIcNS_11char_traitsIcEENS_9allocatorIcEEEENS_17__hash_value_typeIS7_S7_EENS_8equal_toIS7_EENS_4hashIS7_EELb1EEELi1ELb1EEC2B8ue170006ENS_18__default_init_tagE, symObjAddr: 0x2254, symBinAddr: 0x1000041F0, symSize: 0x2C }
  - { offsetInCU: 0x131EB, offset: 0x131EB, size: 0x8, addend: 0x0, symName: __ZNSt3__121__unordered_map_equalINS_12basic_stringIcNS_11char_traitsIcEENS_9allocatorIcEEEENS_17__hash_value_typeIS6_S6_EENS_8equal_toIS6_EENS_4hashIS6_EELb1EEC2B8ue170006Ev, symObjAddr: 0x2280, symBinAddr: 0x10000421C, symSize: 0x14 }
  - { offsetInCU: 0x13215, offset: 0x13215, size: 0x8, addend: 0x0, symName: __ZNSt3__13setINS_12basic_stringIcNS_11char_traitsIcEENS_9allocatorIcEEEENS_4lessIS6_EENS4_IS6_EEED2B8ue170006Ev, symObjAddr: 0x2294, symBinAddr: 0x100004230, symSize: 0x2C }
  - { offsetInCU: 0x1323F, offset: 0x1323F, size: 0x8, addend: 0x0, symName: __ZNSt3__16__treeINS_12basic_stringIcNS_11char_traitsIcEENS_9allocatorIcEEEENS_4lessIS6_EENS4_IS6_EEED1Ev, symObjAddr: 0x22C0, symBinAddr: 0x10000425C, symSize: 0x2C }
  - { offsetInCU: 0x1326B, offset: 0x1326B, size: 0x8, addend: 0x0, symName: __ZNSt3__16__treeINS_12basic_stringIcNS_11char_traitsIcEENS_9allocatorIcEEEENS_4lessIS6_EENS4_IS6_EEED2Ev, symObjAddr: 0x22EC, symBinAddr: 0x100004288, symSize: 0x38 }
  - { offsetInCU: 0x13297, offset: 0x13297, size: 0x8, addend: 0x0, symName: __ZNSt3__16__treeINS_12basic_stringIcNS_11char_traitsIcEENS_9allocatorIcEEEENS_4lessIS6_EENS4_IS6_EEE7destroyEPNS_11__tree_nodeIS6_PvEE, symObjAddr: 0x2324, symBinAddr: 0x1000042C0, symSize: 0xAC }
  - { offsetInCU: 0x132E3, offset: 0x132E3, size: 0x8, addend: 0x0, symName: __ZNKSt3__16__treeINS_12basic_stringIcNS_11char_traitsIcEENS_9allocatorIcEEEENS_4lessIS6_EENS4_IS6_EEE6__rootB8ue170006Ev, symObjAddr: 0x23D0, symBinAddr: 0x10000436C, symSize: 0x28 }
  - { offsetInCU: 0x13309, offset: 0x13309, size: 0x8, addend: 0x0, symName: __ZNSt3__16__treeINS_12basic_stringIcNS_11char_traitsIcEENS_9allocatorIcEEEENS_4lessIS6_EENS4_IS6_EEE12__node_allocB8ue170006Ev, symObjAddr: 0x23F8, symBinAddr: 0x100004394, symSize: 0x28 }
  - { offsetInCU: 0x1332F, offset: 0x1332F, size: 0x8, addend: 0x0, symName: __ZNSt3__116allocator_traitsINS_9allocatorINS_11__tree_nodeINS_12basic_stringIcNS_11char_traitsIcEENS1_IcEEEEPvEEEEE7destroyB8ue170006IS7_vvEEvRSA_PT_, symObjAddr: 0x2420, symBinAddr: 0x1000043BC, symSize: 0x28 }
  - { offsetInCU: 0x1336A, offset: 0x1336A, size: 0x8, addend: 0x0, symName: __ZNSt3__122__tree_key_value_typesINS_12basic_stringIcNS_11char_traitsIcEENS_9allocatorIcEEEEE9__get_ptrB8ue170006ERS6_, symObjAddr: 0x2448, symBinAddr: 0x1000043E4, symSize: 0x14 }
  - { offsetInCU: 0x1338E, offset: 0x1338E, size: 0x8, addend: 0x0, symName: __ZNSt3__116allocator_traitsINS_9allocatorINS_11__tree_nodeINS_12basic_stringIcNS_11char_traitsIcEENS1_IcEEEEPvEEEEE10deallocateB8ue170006ERSA_PS9_m, symObjAddr: 0x245C, symBinAddr: 0x1000043F8, symSize: 0x34 }
  - { offsetInCU: 0x133D0, offset: 0x133D0, size: 0x8, addend: 0x0, symName: __ZNSt3__117__compressed_pairINS_15__tree_end_nodeIPNS_16__tree_node_baseIPvEEEENS_9allocatorINS_11__tree_nodeINS_12basic_stringIcNS_11char_traitsIcEENS7_IcEEEES3_EEEEE6secondB8ue170006Ev, symObjAddr: 0x2490, symBinAddr: 0x10000442C, symSize: 0x24 }
  - { offsetInCU: 0x133F6, offset: 0x133F6, size: 0x8, addend: 0x0, symName: __ZNSt3__122__compressed_pair_elemINS_9allocatorINS_11__tree_nodeINS_12basic_stringIcNS_11char_traitsIcEENS1_IcEEEEPvEEEELi1ELb1EE5__getB8ue170006Ev, symObjAddr: 0x24B4, symBinAddr: 0x100004450, symSize: 0x14 }
  - { offsetInCU: 0x1341C, offset: 0x1341C, size: 0x8, addend: 0x0, symName: __ZNSt3__19allocatorINS_11__tree_nodeINS_12basic_stringIcNS_11char_traitsIcEENS0_IcEEEEPvEEE10deallocateB8ue170006EPS8_m, symObjAddr: 0x24C8, symBinAddr: 0x100004464, symSize: 0x44 }
  - { offsetInCU: 0x1345E, offset: 0x1345E, size: 0x8, addend: 0x0, symName: __ZNKSt3__16__treeINS_12basic_stringIcNS_11char_traitsIcEENS_9allocatorIcEEEENS_4lessIS6_EENS4_IS6_EEE10__end_nodeB8ue170006Ev, symObjAddr: 0x2634, symBinAddr: 0x1000045D0, symSize: 0x2C }
  - { offsetInCU: 0x13484, offset: 0x13484, size: 0x8, addend: 0x0, symName: __ZNKSt3__117__compressed_pairINS_15__tree_end_nodeIPNS_16__tree_node_baseIPvEEEENS_9allocatorINS_11__tree_nodeINS_12basic_stringIcNS_11char_traitsIcEENS7_IcEEEES3_EEEEE5firstB8ue170006Ev, symObjAddr: 0x2660, symBinAddr: 0x1000045FC, symSize: 0x24 }
  - { offsetInCU: 0x134AA, offset: 0x134AA, size: 0x8, addend: 0x0, symName: __ZNKSt3__122__compressed_pair_elemINS_15__tree_end_nodeIPNS_16__tree_node_baseIPvEEEELi0ELb0EE5__getB8ue170006Ev, symObjAddr: 0x2684, symBinAddr: 0x100004620, symSize: 0x14 }
  - { offsetInCU: 0x134D0, offset: 0x134D0, size: 0x8, addend: 0x0, symName: __ZNSt3__113unordered_mapINS_12basic_stringIcNS_11char_traitsIcEENS_9allocatorIcEEEES6_NS_4hashIS6_EENS_8equal_toIS6_EENS4_INS_4pairIKS6_S6_EEEEED2B8ue170006Ev, symObjAddr: 0x2698, symBinAddr: 0x100004634, symSize: 0x2C }
  - { offsetInCU: 0x134FA, offset: 0x134FA, size: 0x8, addend: 0x0, symName: __ZNSt3__112__hash_tableINS_17__hash_value_typeINS_12basic_stringIcNS_11char_traitsIcEENS_9allocatorIcEEEES7_EENS_22__unordered_map_hasherIS7_S8_NS_4hashIS7_EENS_8equal_toIS7_EELb1EEENS_21__unordered_map_equalIS7_S8_SD_SB_Lb1EEENS5_IS8_EEED1Ev, symObjAddr: 0x26C4, symBinAddr: 0x100004660, symSize: 0x2C }
  - { offsetInCU: 0x13526, offset: 0x13526, size: 0x8, addend: 0x0, symName: __ZNSt3__112__hash_tableINS_17__hash_value_typeINS_12basic_stringIcNS_11char_traitsIcEENS_9allocatorIcEEEES7_EENS_22__unordered_map_hasherIS7_S8_NS_4hashIS7_EENS_8equal_toIS7_EELb1EEENS_21__unordered_map_equalIS7_S8_SD_SB_Lb1EEENS5_IS8_EEED2Ev, symObjAddr: 0x26F0, symBinAddr: 0x10000468C, symSize: 0x48 }
  - { offsetInCU: 0x13552, offset: 0x13552, size: 0x8, addend: 0x0, symName: __ZNSt3__112__hash_tableINS_17__hash_value_typeINS_12basic_stringIcNS_11char_traitsIcEENS_9allocatorIcEEEES7_EENS_22__unordered_map_hasherIS7_S8_NS_4hashIS7_EENS_8equal_toIS7_EELb1EEENS_21__unordered_map_equalIS7_S8_SD_SB_Lb1EEENS5_IS8_EEE17__deallocate_nodeEPNS_16__hash_node_baseIPNS_11__hash_nodeIS8_PvEEEE, symObjAddr: 0x2738, symBinAddr: 0x1000046D4, symSize: 0xA8 }
  - { offsetInCU: 0x135BC, offset: 0x135BC, size: 0x8, addend: 0x0, symName: __ZNSt3__117__compressed_pairINS_16__hash_node_baseIPNS_11__hash_nodeINS_17__hash_value_typeINS_12basic_stringIcNS_11char_traitsIcEENS_9allocatorIcEEEES9_EEPvEEEENS7_ISC_EEE5firstB8ue170006Ev, symObjAddr: 0x27E0, symBinAddr: 0x10000477C, symSize: 0x24 }
  - { offsetInCU: 0x135E2, offset: 0x135E2, size: 0x8, addend: 0x0, symName: __ZNSt3__110unique_ptrIA_PNS_16__hash_node_baseIPNS_11__hash_nodeINS_17__hash_value_typeINS_12basic_stringIcNS_11char_traitsIcEENS_9allocatorIcEEEES9_EEPvEEEENS_25__bucket_list_deallocatorINS7_ISF_EEEEED1B8ue170006Ev, symObjAddr: 0x2804, symBinAddr: 0x1000047A0, symSize: 0x2C }
  - { offsetInCU: 0x1360C, offset: 0x1360C, size: 0x8, addend: 0x0, symName: __ZNSt3__112__hash_tableINS_17__hash_value_typeINS_12basic_stringIcNS_11char_traitsIcEENS_9allocatorIcEEEES7_EENS_22__unordered_map_hasherIS7_S8_NS_4hashIS7_EENS_8equal_toIS7_EELb1EEENS_21__unordered_map_equalIS7_S8_SD_SB_Lb1EEENS5_IS8_EEE12__node_allocB8ue170006Ev, symObjAddr: 0x2830, symBinAddr: 0x1000047CC, symSize: 0x28 }
  - { offsetInCU: 0x13632, offset: 0x13632, size: 0x8, addend: 0x0, symName: __ZNSt3__116__hash_node_baseIPNS_11__hash_nodeINS_17__hash_value_typeINS_12basic_stringIcNS_11char_traitsIcEENS_9allocatorIcEEEES8_EEPvEEE8__upcastB8ue170006Ev, symObjAddr: 0x2858, symBinAddr: 0x1000047F4, symSize: 0x24 }
  - { offsetInCU: 0x13658, offset: 0x13658, size: 0x8, addend: 0x0, symName: __ZNSt3__116allocator_traitsINS_9allocatorINS_11__hash_nodeINS_17__hash_value_typeINS_12basic_stringIcNS_11char_traitsIcEENS1_IcEEEES8_EEPvEEEEE7destroyB8ue170006INS_4pairIKS8_S8_EEvvEEvRSC_PT_, symObjAddr: 0x287C, symBinAddr: 0x100004818, symSize: 0x28 }
  - { offsetInCU: 0x13693, offset: 0x13693, size: 0x8, addend: 0x0, symName: __ZNSt3__122__hash_key_value_typesINS_17__hash_value_typeINS_12basic_stringIcNS_11char_traitsIcEENS_9allocatorIcEEEES7_EEE9__get_ptrB8ue170006ERS8_, symObjAddr: 0x28A4, symBinAddr: 0x100004840, symSize: 0x24 }
  - { offsetInCU: 0x136B6, offset: 0x136B6, size: 0x8, addend: 0x0, symName: __ZNSt3__116allocator_traitsINS_9allocatorINS_11__hash_nodeINS_17__hash_value_typeINS_12basic_stringIcNS_11char_traitsIcEENS1_IcEEEES8_EEPvEEEEE10deallocateB8ue170006ERSC_PSB_m, symObjAddr: 0x28C8, symBinAddr: 0x100004864, symSize: 0x34 }
  - { offsetInCU: 0x136F8, offset: 0x136F8, size: 0x8, addend: 0x0, symName: __ZNSt3__117__compressed_pairINS_16__hash_node_baseIPNS_11__hash_nodeINS_17__hash_value_typeINS_12basic_stringIcNS_11char_traitsIcEENS_9allocatorIcEEEES9_EEPvEEEENS7_ISC_EEE6secondB8ue170006Ev, symObjAddr: 0x28FC, symBinAddr: 0x100004898, symSize: 0x24 }
  - { offsetInCU: 0x1371E, offset: 0x1371E, size: 0x8, addend: 0x0, symName: __ZNSt3__122__compressed_pair_elemINS_9allocatorINS_11__hash_nodeINS_17__hash_value_typeINS_12basic_stringIcNS_11char_traitsIcEENS1_IcEEEES8_EEPvEEEELi1ELb1EE5__getB8ue170006Ev, symObjAddr: 0x2920, symBinAddr: 0x1000048BC, symSize: 0x14 }
  - { offsetInCU: 0x13744, offset: 0x13744, size: 0x8, addend: 0x0, symName: __ZNSt3__114pointer_traitsIPNS_16__hash_node_baseIPNS_11__hash_nodeINS_17__hash_value_typeINS_12basic_stringIcNS_11char_traitsIcEENS_9allocatorIcEEEES9_EEPvEEEEE10pointer_toB8ue170006ERSE_, symObjAddr: 0x2934, symBinAddr: 0x1000048D0, symSize: 0x14 }
  - { offsetInCU: 0x13767, offset: 0x13767, size: 0x8, addend: 0x0, symName: __ZNSt3__14pairIKNS_12basic_stringIcNS_11char_traitsIcEENS_9allocatorIcEEEES6_ED1Ev, symObjAddr: 0x2948, symBinAddr: 0x1000048E4, symSize: 0x2C }
  - { offsetInCU: 0x13793, offset: 0x13793, size: 0x8, addend: 0x0, symName: __ZNSt3__14pairIKNS_12basic_stringIcNS_11char_traitsIcEENS_9allocatorIcEEEES6_ED2Ev, symObjAddr: 0x2974, symBinAddr: 0x100004910, symSize: 0x38 }
  - { offsetInCU: 0x137BF, offset: 0x137BF, size: 0x8, addend: 0x0, symName: __ZNSt3__117__hash_value_typeINS_12basic_stringIcNS_11char_traitsIcEENS_9allocatorIcEEEES6_E11__get_valueB8ue170006Ev, symObjAddr: 0x29AC, symBinAddr: 0x100004948, symSize: 0x24 }
  - { offsetInCU: 0x137E5, offset: 0x137E5, size: 0x8, addend: 0x0, symName: __ZNSt3__19allocatorINS_11__hash_nodeINS_17__hash_value_typeINS_12basic_stringIcNS_11char_traitsIcEENS0_IcEEEES7_EEPvEEE10deallocateB8ue170006EPSA_m, symObjAddr: 0x2A08, symBinAddr: 0x1000049A4, symSize: 0x40 }
  - { offsetInCU: 0x13827, offset: 0x13827, size: 0x8, addend: 0x0, symName: __ZNSt3__122__compressed_pair_elemINS_16__hash_node_baseIPNS_11__hash_nodeINS_17__hash_value_typeINS_12basic_stringIcNS_11char_traitsIcEENS_9allocatorIcEEEES9_EEPvEEEELi0ELb0EE5__getB8ue170006Ev, symObjAddr: 0x2A48, symBinAddr: 0x1000049E4, symSize: 0x14 }
  - { offsetInCU: 0x1384D, offset: 0x1384D, size: 0x8, addend: 0x0, symName: __ZNSt3__110unique_ptrIA_PNS_16__hash_node_baseIPNS_11__hash_nodeINS_17__hash_value_typeINS_12basic_stringIcNS_11char_traitsIcEENS_9allocatorIcEEEES9_EEPvEEEENS_25__bucket_list_deallocatorINS7_ISF_EEEEED2B8ue170006Ev, symObjAddr: 0x2A5C, symBinAddr: 0x1000049F8, symSize: 0x30 }
  - { offsetInCU: 0x13877, offset: 0x13877, size: 0x8, addend: 0x0, symName: __ZNSt3__110unique_ptrIA_PNS_16__hash_node_baseIPNS_11__hash_nodeINS_17__hash_value_typeINS_12basic_stringIcNS_11char_traitsIcEENS_9allocatorIcEEEES9_EEPvEEEENS_25__bucket_list_deallocatorINS7_ISF_EEEEE5resetB8ue170006EDn, symObjAddr: 0x2A8C, symBinAddr: 0x100004A28, symSize: 0x6C }
  - { offsetInCU: 0x138B8, offset: 0x138B8, size: 0x8, addend: 0x0, symName: __ZNSt3__117__compressed_pairIPPNS_16__hash_node_baseIPNS_11__hash_nodeINS_17__hash_value_typeINS_12basic_stringIcNS_11char_traitsIcEENS_9allocatorIcEEEES9_EEPvEEEENS_25__bucket_list_deallocatorINS7_ISF_EEEEE5firstB8ue170006Ev, symObjAddr: 0x2AF8, symBinAddr: 0x100004A94, symSize: 0x24 }
  - { offsetInCU: 0x138DE, offset: 0x138DE, size: 0x8, addend: 0x0, symName: __ZNSt3__117__compressed_pairIPPNS_16__hash_node_baseIPNS_11__hash_nodeINS_17__hash_value_typeINS_12basic_stringIcNS_11char_traitsIcEENS_9allocatorIcEEEES9_EEPvEEEENS_25__bucket_list_deallocatorINS7_ISF_EEEEE6secondB8ue170006Ev, symObjAddr: 0x2B1C, symBinAddr: 0x100004AB8, symSize: 0x28 }
  - { offsetInCU: 0x13904, offset: 0x13904, size: 0x8, addend: 0x0, symName: __ZNSt3__125__bucket_list_deallocatorINS_9allocatorIPNS_16__hash_node_baseIPNS_11__hash_nodeINS_17__hash_value_typeINS_12basic_stringIcNS_11char_traitsIcEENS1_IcEEEES9_EEPvEEEEEEEclB8ue170006EPSF_, symObjAddr: 0x2B44, symBinAddr: 0x100004AE0, symSize: 0x58 }
  - { offsetInCU: 0x13939, offset: 0x13939, size: 0x8, addend: 0x0, symName: __ZNSt3__122__compressed_pair_elemIPPNS_16__hash_node_baseIPNS_11__hash_nodeINS_17__hash_value_typeINS_12basic_stringIcNS_11char_traitsIcEENS_9allocatorIcEEEES9_EEPvEEEELi0ELb0EE5__getB8ue170006Ev, symObjAddr: 0x2B9C, symBinAddr: 0x100004B38, symSize: 0x14 }
  - { offsetInCU: 0x1395F, offset: 0x1395F, size: 0x8, addend: 0x0, symName: __ZNSt3__122__compressed_pair_elemINS_25__bucket_list_deallocatorINS_9allocatorIPNS_16__hash_node_baseIPNS_11__hash_nodeINS_17__hash_value_typeINS_12basic_stringIcNS_11char_traitsIcEENS2_IcEEEESA_EEPvEEEEEEEELi1ELb0EE5__getB8ue170006Ev, symObjAddr: 0x2BB0, symBinAddr: 0x100004B4C, symSize: 0x14 }
  - { offsetInCU: 0x13985, offset: 0x13985, size: 0x8, addend: 0x0, symName: __ZNSt3__116allocator_traitsINS_9allocatorIPNS_16__hash_node_baseIPNS_11__hash_nodeINS_17__hash_value_typeINS_12basic_stringIcNS_11char_traitsIcEENS1_IcEEEES9_EEPvEEEEEEE10deallocateB8ue170006ERSG_PSF_m, symObjAddr: 0x2BC4, symBinAddr: 0x100004B60, symSize: 0x34 }
  - { offsetInCU: 0x139C7, offset: 0x139C7, size: 0x8, addend: 0x0, symName: __ZNSt3__125__bucket_list_deallocatorINS_9allocatorIPNS_16__hash_node_baseIPNS_11__hash_nodeINS_17__hash_value_typeINS_12basic_stringIcNS_11char_traitsIcEENS1_IcEEEES9_EEPvEEEEEEE7__allocB8ue170006Ev, symObjAddr: 0x2BF8, symBinAddr: 0x100004B94, symSize: 0x24 }
  - { offsetInCU: 0x139ED, offset: 0x139ED, size: 0x8, addend: 0x0, symName: __ZNSt3__125__bucket_list_deallocatorINS_9allocatorIPNS_16__hash_node_baseIPNS_11__hash_nodeINS_17__hash_value_typeINS_12basic_stringIcNS_11char_traitsIcEENS1_IcEEEES9_EEPvEEEEEEE4sizeB8ue170006Ev, symObjAddr: 0x2C1C, symBinAddr: 0x100004BB8, symSize: 0x24 }
  - { offsetInCU: 0x13A13, offset: 0x13A13, size: 0x8, addend: 0x0, symName: __ZNSt3__19allocatorIPNS_16__hash_node_baseIPNS_11__hash_nodeINS_17__hash_value_typeINS_12basic_stringIcNS_11char_traitsIcEENS0_IcEEEES8_EEPvEEEEE10deallocateB8ue170006EPSE_m, symObjAddr: 0x2C40, symBinAddr: 0x100004BDC, symSize: 0x40 }
  - { offsetInCU: 0x13A55, offset: 0x13A55, size: 0x8, addend: 0x0, symName: __ZNSt3__117__compressed_pairImNS_9allocatorIPNS_16__hash_node_baseIPNS_11__hash_nodeINS_17__hash_value_typeINS_12basic_stringIcNS_11char_traitsIcEENS1_IcEEEES9_EEPvEEEEEEE6secondB8ue170006Ev, symObjAddr: 0x2C80, symBinAddr: 0x100004C1C, symSize: 0x24 }
  - { offsetInCU: 0x13A7B, offset: 0x13A7B, size: 0x8, addend: 0x0, symName: __ZNSt3__122__compressed_pair_elemINS_9allocatorIPNS_16__hash_node_baseIPNS_11__hash_nodeINS_17__hash_value_typeINS_12basic_stringIcNS_11char_traitsIcEENS1_IcEEEES9_EEPvEEEEEELi1ELb1EE5__getB8ue170006Ev, symObjAddr: 0x2CA4, symBinAddr: 0x100004C40, symSize: 0x14 }
  - { offsetInCU: 0x13AA1, offset: 0x13AA1, size: 0x8, addend: 0x0, symName: __ZNSt3__117__compressed_pairImNS_9allocatorIPNS_16__hash_node_baseIPNS_11__hash_nodeINS_17__hash_value_typeINS_12basic_stringIcNS_11char_traitsIcEENS1_IcEEEES9_EEPvEEEEEEE5firstB8ue170006Ev, symObjAddr: 0x2CB8, symBinAddr: 0x100004C54, symSize: 0x24 }
  - { offsetInCU: 0x13AC7, offset: 0x13AC7, size: 0x8, addend: 0x0, symName: __ZNSt3__122__compressed_pair_elemImLi0ELb0EE5__getB8ue170006Ev, symObjAddr: 0x2CDC, symBinAddr: 0x100004C78, symSize: 0x14 }
  - { offsetInCU: 0x13AED, offset: 0x13AED, size: 0x8, addend: 0x0, symName: __ZNSt3__16vectorINS_4pairINS_12basic_stringIcNS_11char_traitsIcEENS_9allocatorIcEEEES7_EENS5_IS8_EEE11__make_iterB8ue170006EPS8_, symObjAddr: 0x2CF0, symBinAddr: 0x100004C8C, symSize: 0x30 }
  - { offsetInCU: 0x13B22, offset: 0x13B22, size: 0x8, addend: 0x0, symName: __ZNSt3__111__wrap_iterIPNS_4pairINS_12basic_stringIcNS_11char_traitsIcEENS_9allocatorIcEEEES7_EEEC1B8ue170006ES9_, symObjAddr: 0x2D20, symBinAddr: 0x100004CBC, symSize: 0x34 }
  - { offsetInCU: 0x13B5A, offset: 0x13B5A, size: 0x8, addend: 0x0, symName: __ZNSt3__111__wrap_iterIPNS_4pairINS_12basic_stringIcNS_11char_traitsIcEENS_9allocatorIcEEEES7_EEEC2B8ue170006ES9_, symObjAddr: 0x2D54, symBinAddr: 0x100004CF0, symSize: 0x20 }
  - { offsetInCU: 0x13B92, offset: 0x13B92, size: 0x8, addend: 0x0, symName: __ZNSt3__16__treeINS_12basic_stringIcNS_11char_traitsIcEENS_9allocatorIcEEEENS_4lessIS6_EENS4_IS6_EEE15__insert_uniqueB8ue170006ERKS6_, symObjAddr: 0x2D74, symBinAddr: 0x100004D10, symSize: 0x50 }
  - { offsetInCU: 0x13BC7, offset: 0x13BC7, size: 0x8, addend: 0x0, symName: __ZNSt3__14pairINS_21__tree_const_iteratorINS_12basic_stringIcNS_11char_traitsIcEENS_9allocatorIcEEEEPNS_11__tree_nodeIS7_PvEElEEbEC1B8ue170006INS_15__tree_iteratorIS7_SB_lEEbLS9_0EEEONS0_IT_T0_EE, symObjAddr: 0x2DC4, symBinAddr: 0x100004D60, symSize: 0x34 }
  - { offsetInCU: 0x13C18, offset: 0x13C18, size: 0x8, addend: 0x0, symName: __ZNSt3__16__treeINS_12basic_stringIcNS_11char_traitsIcEENS_9allocatorIcEEEENS_4lessIS6_EENS4_IS6_EEE25__emplace_unique_key_argsIS6_JRKS6_EEENS_4pairINS_15__tree_iteratorIS6_PNS_11__tree_nodeIS6_PvEElEEbEERKT_DpOT0_, symObjAddr: 0x2DF8, symBinAddr: 0x100004D94, symSize: 0xF0 }
  - { offsetInCU: 0x13CC4, offset: 0x13CC4, size: 0x8, addend: 0x0, symName: __ZNSt3__122__tree_key_value_typesINS_12basic_stringIcNS_11char_traitsIcEENS_9allocatorIcEEEEE9__get_keyB8ue170006ERKS6_, symObjAddr: 0x2EE8, symBinAddr: 0x100004E84, symSize: 0x14 }
  - { offsetInCU: 0x13CE8, offset: 0x13CE8, size: 0x8, addend: 0x0, symName: __ZNSt3__16__treeINS_12basic_stringIcNS_11char_traitsIcEENS_9allocatorIcEEEENS_4lessIS6_EENS4_IS6_EEE12__find_equalIS6_EERPNS_16__tree_node_baseIPvEERPNS_15__tree_end_nodeISF_EERKT_, symObjAddr: 0x2EFC, symBinAddr: 0x100004E98, symSize: 0x184 }
  - { offsetInCU: 0x13D55, offset: 0x13D55, size: 0x8, addend: 0x0, symName: __ZNSt3__16__treeINS_12basic_stringIcNS_11char_traitsIcEENS_9allocatorIcEEEENS_4lessIS6_EENS4_IS6_EEE16__construct_nodeIJRKS6_EEENS_10unique_ptrINS_11__tree_nodeIS6_PvEENS_22__tree_node_destructorINS4_ISH_EEEEEEDpOT_, symObjAddr: 0x3080, symBinAddr: 0x10000501C, symSize: 0x108 }
  - { offsetInCU: 0x13DB6, offset: 0x13DB6, size: 0x8, addend: 0x0, symName: __ZNSt3__16__treeINS_12basic_stringIcNS_11char_traitsIcEENS_9allocatorIcEEEENS_4lessIS6_EENS4_IS6_EEE16__insert_node_atEPNS_15__tree_end_nodeIPNS_16__tree_node_baseIPvEEEERSF_SF_, symObjAddr: 0x3188, symBinAddr: 0x100005124, symSize: 0xCC }
  - { offsetInCU: 0x13E0B, offset: 0x13E0B, size: 0x8, addend: 0x0, symName: __ZNKSt3__110unique_ptrINS_11__tree_nodeINS_12basic_stringIcNS_11char_traitsIcEENS_9allocatorIcEEEEPvEENS_22__tree_node_destructorINS5_IS9_EEEEE3getB8ue170006Ev, symObjAddr: 0x3254, symBinAddr: 0x1000051F0, symSize: 0x28 }
  - { offsetInCU: 0x13E31, offset: 0x13E31, size: 0x8, addend: 0x0, symName: __ZNSt3__110unique_ptrINS_11__tree_nodeINS_12basic_stringIcNS_11char_traitsIcEENS_9allocatorIcEEEEPvEENS_22__tree_node_destructorINS5_IS9_EEEEE7releaseB8ue170006Ev, symObjAddr: 0x327C, symBinAddr: 0x100005218, symSize: 0x44 }
  - { offsetInCU: 0x13E66, offset: 0x13E66, size: 0x8, addend: 0x0, symName: __ZNSt3__110unique_ptrINS_11__tree_nodeINS_12basic_stringIcNS_11char_traitsIcEENS_9allocatorIcEEEEPvEENS_22__tree_node_destructorINS5_IS9_EEEEED1B8ue170006Ev, symObjAddr: 0x32C0, symBinAddr: 0x10000525C, symSize: 0x2C }
  - { offsetInCU: 0x13E90, offset: 0x13E90, size: 0x8, addend: 0x0, symName: __ZNSt3__115__tree_iteratorINS_12basic_stringIcNS_11char_traitsIcEENS_9allocatorIcEEEEPNS_11__tree_nodeIS6_PvEElEC1B8ue170006ESA_, symObjAddr: 0x32EC, symBinAddr: 0x100005288, symSize: 0x34 }
  - { offsetInCU: 0x13ED4, offset: 0x13ED4, size: 0x8, addend: 0x0, symName: __ZNSt3__14pairINS_15__tree_iteratorINS_12basic_stringIcNS_11char_traitsIcEENS_9allocatorIcEEEEPNS_11__tree_nodeIS7_PvEElEEbEC1B8ue170006ISC_RbLS9_0EEEOT_OT0_, symObjAddr: 0x3320, symBinAddr: 0x1000052BC, symSize: 0x3C }
  - { offsetInCU: 0x13F32, offset: 0x13F32, size: 0x8, addend: 0x0, symName: __ZNKSt3__16__treeINS_12basic_stringIcNS_11char_traitsIcEENS_9allocatorIcEEEENS_4lessIS6_EENS4_IS6_EEE10__root_ptrB8ue170006Ev, symObjAddr: 0x335C, symBinAddr: 0x1000052F8, symSize: 0x24 }
  - { offsetInCU: 0x13F58, offset: 0x13F58, size: 0x8, addend: 0x0, symName: __ZNSt3__16__treeINS_12basic_stringIcNS_11char_traitsIcEENS_9allocatorIcEEEENS_4lessIS6_EENS4_IS6_EEE10value_compB8ue170006Ev, symObjAddr: 0x3380, symBinAddr: 0x10000531C, symSize: 0x28 }
  - { offsetInCU: 0x13F7E, offset: 0x13F7E, size: 0x8, addend: 0x0, symName: __ZNKSt3__14lessINS_12basic_stringIcNS_11char_traitsIcEENS_9allocatorIcEEEEEclB8ue170006ERKS6_S9_, symObjAddr: 0x33A8, symBinAddr: 0x100005344, symSize: 0x34 }
  - { offsetInCU: 0x13FC2, offset: 0x13FC2, size: 0x8, addend: 0x0, symName: __ZNSt3__117__compressed_pairImNS_4lessINS_12basic_stringIcNS_11char_traitsIcEENS_9allocatorIcEEEEEEE6secondB8ue170006Ev, symObjAddr: 0x33DC, symBinAddr: 0x100005378, symSize: 0x24 }
  - { offsetInCU: 0x13FE8, offset: 0x13FE8, size: 0x8, addend: 0x0, symName: __ZNSt3__122__compressed_pair_elemINS_4lessINS_12basic_stringIcNS_11char_traitsIcEENS_9allocatorIcEEEEEELi1ELb1EE5__getB8ue170006Ev, symObjAddr: 0x3400, symBinAddr: 0x10000539C, symSize: 0x14 }
  - { offsetInCU: 0x1400E, offset: 0x1400E, size: 0x8, addend: 0x0, symName: __ZNKSt3__112basic_stringIcNS_11char_traitsIcEENS_9allocatorIcEEE7compareB8ue170006ERKS5_, symObjAddr: 0x344C, symBinAddr: 0x1000053E8, symSize: 0x4C }
  - { offsetInCU: 0x14045, offset: 0x14045, size: 0x8, addend: 0x0, symName: __ZNKSt3__112basic_stringIcNS_11char_traitsIcEENS_9allocatorIcEEE7compareINS_17basic_string_viewIcS2_EELi0EEEiRKT_, symObjAddr: 0x3498, symBinAddr: 0x100005434, symSize: 0x12C }
  - { offsetInCU: 0x140C8, offset: 0x140C8, size: 0x8, addend: 0x0, symName: __ZNKSt3__112basic_stringIcNS_11char_traitsIcEENS_9allocatorIcEEEcvNS_17basic_string_viewIcS2_EEB8ue170006Ev, symObjAddr: 0x35C4, symBinAddr: 0x100005560, symSize: 0x50 }
  - { offsetInCU: 0x140EE, offset: 0x140EE, size: 0x8, addend: 0x0, symName: __ZNKSt3__112basic_stringIcNS_11char_traitsIcEENS_9allocatorIcEEE4sizeB8ue170006Ev, symObjAddr: 0x3614, symBinAddr: 0x1000055B0, symSize: 0x54 }
  - { offsetInCU: 0x14114, offset: 0x14114, size: 0x8, addend: 0x0, symName: __ZNKSt3__117basic_string_viewIcNS_11char_traitsIcEEE4sizeB8ue170006Ev, symObjAddr: 0x3668, symBinAddr: 0x100005604, symSize: 0x18 }
  - { offsetInCU: 0x1413A, offset: 0x1413A, size: 0x8, addend: 0x0, symName: __ZNSt3__111char_traitsIcE7compareB8ue170006EPKcS3_m, symObjAddr: 0x3680, symBinAddr: 0x10000561C, symSize: 0x34 }
  - { offsetInCU: 0x14179, offset: 0x14179, size: 0x8, addend: 0x0, symName: __ZNKSt3__112basic_stringIcNS_11char_traitsIcEENS_9allocatorIcEEE4dataB8ue170006Ev, symObjAddr: 0x36B4, symBinAddr: 0x100005650, symSize: 0x28 }
  - { offsetInCU: 0x1419F, offset: 0x1419F, size: 0x8, addend: 0x0, symName: __ZNKSt3__117basic_string_viewIcNS_11char_traitsIcEEE4dataB8ue170006Ev, symObjAddr: 0x36DC, symBinAddr: 0x100005678, symSize: 0x18 }
  - { offsetInCU: 0x141C5, offset: 0x141C5, size: 0x8, addend: 0x0, symName: __ZNKSt3__112basic_stringIcNS_11char_traitsIcEENS_9allocatorIcEEE9__is_longB8ue170006Ev, symObjAddr: 0x3720, symBinAddr: 0x1000056BC, symSize: 0x38 }
  - { offsetInCU: 0x141EB, offset: 0x141EB, size: 0x8, addend: 0x0, symName: __ZNKSt3__112basic_stringIcNS_11char_traitsIcEENS_9allocatorIcEEE15__get_long_sizeB8ue170006Ev, symObjAddr: 0x3758, symBinAddr: 0x1000056F4, symSize: 0x28 }
  - { offsetInCU: 0x14211, offset: 0x14211, size: 0x8, addend: 0x0, symName: __ZNKSt3__112basic_stringIcNS_11char_traitsIcEENS_9allocatorIcEEE16__get_short_sizeB8ue170006Ev, symObjAddr: 0x3780, symBinAddr: 0x10000571C, symSize: 0x34 }
  - { offsetInCU: 0x14237, offset: 0x14237, size: 0x8, addend: 0x0, symName: __ZNKSt3__117__compressed_pairINS_12basic_stringIcNS_11char_traitsIcEENS_9allocatorIcEEE5__repES5_E5firstB8ue170006Ev, symObjAddr: 0x37B4, symBinAddr: 0x100005750, symSize: 0x24 }
  - { offsetInCU: 0x1425D, offset: 0x1425D, size: 0x8, addend: 0x0, symName: __ZNKSt3__122__compressed_pair_elemINS_12basic_stringIcNS_11char_traitsIcEENS_9allocatorIcEEE5__repELi0ELb0EE5__getB8ue170006Ev, symObjAddr: 0x37D8, symBinAddr: 0x100005774, symSize: 0x14 }
  - { offsetInCU: 0x14283, offset: 0x14283, size: 0x8, addend: 0x0, symName: __ZNKSt3__112basic_stringIcNS_11char_traitsIcEENS_9allocatorIcEEE13__get_pointerB8ue170006Ev, symObjAddr: 0x3800, symBinAddr: 0x10000579C, symSize: 0x54 }
  - { offsetInCU: 0x142A9, offset: 0x142A9, size: 0x8, addend: 0x0, symName: __ZNKSt3__112basic_stringIcNS_11char_traitsIcEENS_9allocatorIcEEE18__get_long_pointerB8ue170006Ev, symObjAddr: 0x3854, symBinAddr: 0x1000057F0, symSize: 0x28 }
  - { offsetInCU: 0x142CF, offset: 0x142CF, size: 0x8, addend: 0x0, symName: __ZNKSt3__112basic_stringIcNS_11char_traitsIcEENS_9allocatorIcEEE19__get_short_pointerB8ue170006Ev, symObjAddr: 0x387C, symBinAddr: 0x100005818, symSize: 0x28 }
  - { offsetInCU: 0x142F5, offset: 0x142F5, size: 0x8, addend: 0x0, symName: __ZNSt3__114pointer_traitsIPKcE10pointer_toB8ue170006ERS1_, symObjAddr: 0x38A4, symBinAddr: 0x100005840, symSize: 0x14 }
  - { offsetInCU: 0x14322, offset: 0x14322, size: 0x8, addend: 0x0, symName: __ZNKSt3__16__lessIvvEclB8ue170006ImmEEbRKT_RKT0_, symObjAddr: 0x390C, symBinAddr: 0x1000058A8, symSize: 0x34 }
  - { offsetInCU: 0x14376, offset: 0x14376, size: 0x8, addend: 0x0, symName: __ZNSt3__117basic_string_viewIcNS_11char_traitsIcEEEC1B8ue170006EPKcm, symObjAddr: 0x3940, symBinAddr: 0x1000058DC, symSize: 0x3C }
  - { offsetInCU: 0x143BE, offset: 0x143BE, size: 0x8, addend: 0x0, symName: __ZNSt3__117basic_string_viewIcNS_11char_traitsIcEEEC2B8ue170006EPKcm, symObjAddr: 0x397C, symBinAddr: 0x100005918, symSize: 0x2C }
  - { offsetInCU: 0x14406, offset: 0x14406, size: 0x8, addend: 0x0, symName: __ZNSt3__116allocator_traitsINS_9allocatorINS_11__tree_nodeINS_12basic_stringIcNS_11char_traitsIcEENS1_IcEEEEPvEEEEE8allocateB8ue170006ERSA_m, symObjAddr: 0x39A8, symBinAddr: 0x100005944, symSize: 0x2C }
  - { offsetInCU: 0x14439, offset: 0x14439, size: 0x8, addend: 0x0, symName: __ZNSt3__122__tree_node_destructorINS_9allocatorINS_11__tree_nodeINS_12basic_stringIcNS_11char_traitsIcEENS1_IcEEEEPvEEEEEC1B8ue170006ERSA_b, symObjAddr: 0x39D4, symBinAddr: 0x100005970, symSize: 0x48 }
  - { offsetInCU: 0x14487, offset: 0x14487, size: 0x8, addend: 0x0, symName: __ZNSt3__110unique_ptrINS_11__tree_nodeINS_12basic_stringIcNS_11char_traitsIcEENS_9allocatorIcEEEEPvEENS_22__tree_node_destructorINS5_IS9_EEEEEC1B8ue170006ILb1EvEEPS9_NS_16__dependent_typeINS_27__unique_ptr_deleter_sfinaeISC_EEXT_EE20__good_rval_ref_typeE, symObjAddr: 0x3A1C, symBinAddr: 0x1000059B8, symSize: 0x3C }
  - { offsetInCU: 0x144D8, offset: 0x144D8, size: 0x8, addend: 0x0, symName: __ZNSt3__116allocator_traitsINS_9allocatorINS_11__tree_nodeINS_12basic_stringIcNS_11char_traitsIcEENS1_IcEEEEPvEEEEE9constructB8ue170006IS7_JRKS7_EvEEvRSA_PT_DpOT0_, symObjAddr: 0x3A58, symBinAddr: 0x1000059F4, symSize: 0x34 }
  - { offsetInCU: 0x1452F, offset: 0x1452F, size: 0x8, addend: 0x0, symName: __ZNKSt3__110unique_ptrINS_11__tree_nodeINS_12basic_stringIcNS_11char_traitsIcEENS_9allocatorIcEEEEPvEENS_22__tree_node_destructorINS5_IS9_EEEEEptB8ue170006Ev, symObjAddr: 0x3A8C, symBinAddr: 0x100005A28, symSize: 0x28 }
  - { offsetInCU: 0x14555, offset: 0x14555, size: 0x8, addend: 0x0, symName: __ZNSt3__110unique_ptrINS_11__tree_nodeINS_12basic_stringIcNS_11char_traitsIcEENS_9allocatorIcEEEEPvEENS_22__tree_node_destructorINS5_IS9_EEEEE11get_deleterB8ue170006Ev, symObjAddr: 0x3AB4, symBinAddr: 0x100005A50, symSize: 0x24 }
  - { offsetInCU: 0x1457B, offset: 0x1457B, size: 0x8, addend: 0x0, symName: __ZNSt3__19allocatorINS_11__tree_nodeINS_12basic_stringIcNS_11char_traitsIcEENS0_IcEEEEPvEEE8allocateB8ue170006Em, symObjAddr: 0x3AD8, symBinAddr: 0x100005A74, symSize: 0x5C }
  - { offsetInCU: 0x145B9, offset: 0x145B9, size: 0x8, addend: 0x0, symName: __ZNSt3__116allocator_traitsINS_9allocatorINS_11__tree_nodeINS_12basic_stringIcNS_11char_traitsIcEENS1_IcEEEEPvEEEEE8max_sizeB8ue170006ISA_vEEmRKSA_, symObjAddr: 0x3B34, symBinAddr: 0x100005AD0, symSize: 0x24 }
  - { offsetInCU: 0x145E7, offset: 0x145E7, size: 0x8, addend: 0x0, symName: __ZNKSt3__19allocatorINS_11__tree_nodeINS_12basic_stringIcNS_11char_traitsIcEENS0_IcEEEEPvEEE8max_sizeB8ue170006Ev, symObjAddr: 0x3BEC, symBinAddr: 0x100005B88, symSize: 0x20 }
  - { offsetInCU: 0x1460D, offset: 0x1460D, size: 0x8, addend: 0x0, symName: __ZNSt3__122__tree_node_destructorINS_9allocatorINS_11__tree_nodeINS_12basic_stringIcNS_11char_traitsIcEENS1_IcEEEEPvEEEEEC2B8ue170006ERSA_b, symObjAddr: 0x3C5C, symBinAddr: 0x100005BF8, symSize: 0x38 }
  - { offsetInCU: 0x14655, offset: 0x14655, size: 0x8, addend: 0x0, symName: __ZNSt3__110unique_ptrINS_11__tree_nodeINS_12basic_stringIcNS_11char_traitsIcEENS_9allocatorIcEEEEPvEENS_22__tree_node_destructorINS5_IS9_EEEEEC2B8ue170006ILb1EvEEPS9_NS_16__dependent_typeINS_27__unique_ptr_deleter_sfinaeISC_EEXT_EE20__good_rval_ref_typeE, symObjAddr: 0x3C94, symBinAddr: 0x100005C30, symSize: 0x48 }
  - { offsetInCU: 0x146A6, offset: 0x146A6, size: 0x8, addend: 0x0, symName: __ZNSt3__117__compressed_pairIPNS_11__tree_nodeINS_12basic_stringIcNS_11char_traitsIcEENS_9allocatorIcEEEEPvEENS_22__tree_node_destructorINS5_IS9_EEEEEC1B8ue170006IRSA_SD_EEOT_OT0_, symObjAddr: 0x3CDC, symBinAddr: 0x100005C78, symSize: 0x3C }
  - { offsetInCU: 0x146FE, offset: 0x146FE, size: 0x8, addend: 0x0, symName: __ZNSt3__117__compressed_pairIPNS_11__tree_nodeINS_12basic_stringIcNS_11char_traitsIcEENS_9allocatorIcEEEEPvEENS_22__tree_node_destructorINS5_IS9_EEEEEC2B8ue170006IRSA_SD_EEOT_OT0_, symObjAddr: 0x3D18, symBinAddr: 0x100005CB4, symSize: 0x48 }
  - { offsetInCU: 0x14756, offset: 0x14756, size: 0x8, addend: 0x0, symName: __ZNSt3__122__compressed_pair_elemIPNS_11__tree_nodeINS_12basic_stringIcNS_11char_traitsIcEENS_9allocatorIcEEEEPvEELi0ELb0EEC2B8ue170006IRSA_vEEOT_, symObjAddr: 0x3D60, symBinAddr: 0x100005CFC, symSize: 0x24 }
  - { offsetInCU: 0x14798, offset: 0x14798, size: 0x8, addend: 0x0, symName: __ZNSt3__122__compressed_pair_elemINS_22__tree_node_destructorINS_9allocatorINS_11__tree_nodeINS_12basic_stringIcNS_11char_traitsIcEENS2_IcEEEEPvEEEEEELi1ELb0EEC2B8ue170006ISC_vEEOT_, symObjAddr: 0x3D84, symBinAddr: 0x100005D20, symSize: 0x24 }
  - { offsetInCU: 0x147DA, offset: 0x147DA, size: 0x8, addend: 0x0, symName: __ZNSt3__19allocatorINS_11__tree_nodeINS_12basic_stringIcNS_11char_traitsIcEENS0_IcEEEEPvEEE9constructB8ue170006IS6_JRKS6_EEEvPT_DpOT0_, symObjAddr: 0x3DA8, symBinAddr: 0x100005D44, symSize: 0x30 }
  - { offsetInCU: 0x14830, offset: 0x14830, size: 0x8, addend: 0x0, symName: __ZNKSt3__117__compressed_pairIPNS_11__tree_nodeINS_12basic_stringIcNS_11char_traitsIcEENS_9allocatorIcEEEEPvEENS_22__tree_node_destructorINS5_IS9_EEEEE5firstB8ue170006Ev, symObjAddr: 0x3DD8, symBinAddr: 0x100005D74, symSize: 0x24 }
  - { offsetInCU: 0x14856, offset: 0x14856, size: 0x8, addend: 0x0, symName: __ZNKSt3__122__compressed_pair_elemIPNS_11__tree_nodeINS_12basic_stringIcNS_11char_traitsIcEENS_9allocatorIcEEEEPvEELi0ELb0EE5__getB8ue170006Ev, symObjAddr: 0x3DFC, symBinAddr: 0x100005D98, symSize: 0x14 }
  - { offsetInCU: 0x1487C, offset: 0x1487C, size: 0x8, addend: 0x0, symName: __ZNSt3__117__compressed_pairIPNS_11__tree_nodeINS_12basic_stringIcNS_11char_traitsIcEENS_9allocatorIcEEEEPvEENS_22__tree_node_destructorINS5_IS9_EEEEE6secondB8ue170006Ev, symObjAddr: 0x3E10, symBinAddr: 0x100005DAC, symSize: 0x28 }
  - { offsetInCU: 0x148A2, offset: 0x148A2, size: 0x8, addend: 0x0, symName: __ZNSt3__122__compressed_pair_elemINS_22__tree_node_destructorINS_9allocatorINS_11__tree_nodeINS_12basic_stringIcNS_11char_traitsIcEENS2_IcEEEEPvEEEEEELi1ELb0EE5__getB8ue170006Ev, symObjAddr: 0x3E38, symBinAddr: 0x100005DD4, symSize: 0x14 }
  - { offsetInCU: 0x148C8, offset: 0x148C8, size: 0x8, addend: 0x0, symName: __ZNSt3__16__treeINS_12basic_stringIcNS_11char_traitsIcEENS_9allocatorIcEEEENS_4lessIS6_EENS4_IS6_EEE4sizeB8ue170006Ev, symObjAddr: 0x4178, symBinAddr: 0x100006114, symSize: 0x28 }
  - { offsetInCU: 0x148EE, offset: 0x148EE, size: 0x8, addend: 0x0, symName: __ZNKSt3__116__tree_node_baseIPvE15__parent_unsafeB8ue170006Ev, symObjAddr: 0x41A0, symBinAddr: 0x10000613C, symSize: 0x18 }
  - { offsetInCU: 0x14914, offset: 0x14914, size: 0x8, addend: 0x0, symName: __ZNSt3__116__tree_node_baseIPvE12__set_parentB8ue170006EPS2_, symObjAddr: 0x4388, symBinAddr: 0x100006324, symSize: 0x20 }
  - { offsetInCU: 0x14949, offset: 0x14949, size: 0x8, addend: 0x0, symName: __ZNSt3__117__compressed_pairImNS_4lessINS_12basic_stringIcNS_11char_traitsIcEENS_9allocatorIcEEEEEEE5firstB8ue170006Ev, symObjAddr: 0x43A8, symBinAddr: 0x100006344, symSize: 0x24 }
  - { offsetInCU: 0x1496F, offset: 0x1496F, size: 0x8, addend: 0x0, symName: __ZNSt3__117__compressed_pairIPNS_11__tree_nodeINS_12basic_stringIcNS_11char_traitsIcEENS_9allocatorIcEEEEPvEENS_22__tree_node_destructorINS5_IS9_EEEEE5firstB8ue170006Ev, symObjAddr: 0x43CC, symBinAddr: 0x100006368, symSize: 0x24 }
  - { offsetInCU: 0x14995, offset: 0x14995, size: 0x8, addend: 0x0, symName: __ZNSt3__122__compressed_pair_elemIPNS_11__tree_nodeINS_12basic_stringIcNS_11char_traitsIcEENS_9allocatorIcEEEEPvEELi0ELb0EE5__getB8ue170006Ev, symObjAddr: 0x43F0, symBinAddr: 0x10000638C, symSize: 0x14 }
  - { offsetInCU: 0x149BB, offset: 0x149BB, size: 0x8, addend: 0x0, symName: __ZNSt3__110unique_ptrINS_11__tree_nodeINS_12basic_stringIcNS_11char_traitsIcEENS_9allocatorIcEEEEPvEENS_22__tree_node_destructorINS5_IS9_EEEEED2B8ue170006Ev, symObjAddr: 0x4404, symBinAddr: 0x1000063A0, symSize: 0x30 }
  - { offsetInCU: 0x149E5, offset: 0x149E5, size: 0x8, addend: 0x0, symName: __ZNSt3__110unique_ptrINS_11__tree_nodeINS_12basic_stringIcNS_11char_traitsIcEENS_9allocatorIcEEEEPvEENS_22__tree_node_destructorINS5_IS9_EEEEE5resetB8ue170006EPS9_, symObjAddr: 0x4434, symBinAddr: 0x1000063D0, symSize: 0x78 }
  - { offsetInCU: 0x14A29, offset: 0x14A29, size: 0x8, addend: 0x0, symName: __ZNSt3__122__tree_node_destructorINS_9allocatorINS_11__tree_nodeINS_12basic_stringIcNS_11char_traitsIcEENS1_IcEEEEPvEEEEEclB8ue170006EPS9_, symObjAddr: 0x44AC, symBinAddr: 0x100006448, symSize: 0x88 }
  - { offsetInCU: 0x14A5E, offset: 0x14A5E, size: 0x8, addend: 0x0, symName: __ZNSt3__115__tree_iteratorINS_12basic_stringIcNS_11char_traitsIcEENS_9allocatorIcEEEEPNS_11__tree_nodeIS6_PvEElEC2B8ue170006ESA_, symObjAddr: 0x4534, symBinAddr: 0x1000064D0, symSize: 0x20 }
  - { offsetInCU: 0x14A97, offset: 0x14A97, size: 0x8, addend: 0x0, symName: __ZNSt3__14pairINS_15__tree_iteratorINS_12basic_stringIcNS_11char_traitsIcEENS_9allocatorIcEEEEPNS_11__tree_nodeIS7_PvEElEEbEC2B8ue170006ISC_RbLS9_0EEEOT_OT0_, symObjAddr: 0x4554, symBinAddr: 0x1000064F0, symSize: 0x38 }
  - { offsetInCU: 0x14AF5, offset: 0x14AF5, size: 0x8, addend: 0x0, symName: __ZNSt3__14pairINS_21__tree_const_iteratorINS_12basic_stringIcNS_11char_traitsIcEENS_9allocatorIcEEEEPNS_11__tree_nodeIS7_PvEElEEbEC2B8ue170006INS_15__tree_iteratorIS7_SB_lEEbLS9_0EEEONS0_IT_T0_EE, symObjAddr: 0x458C, symBinAddr: 0x100006528, symSize: 0x50 }
  - { offsetInCU: 0x14B46, offset: 0x14B46, size: 0x8, addend: 0x0, symName: __ZNSt3__121__tree_const_iteratorINS_12basic_stringIcNS_11char_traitsIcEENS_9allocatorIcEEEEPNS_11__tree_nodeIS6_PvEElEC1B8ue170006ENS_15__tree_iteratorIS6_SA_lEE, symObjAddr: 0x45DC, symBinAddr: 0x100006578, symSize: 0x34 }
  - { offsetInCU: 0x14B7F, offset: 0x14B7F, size: 0x8, addend: 0x0, symName: __ZNSt3__121__tree_const_iteratorINS_12basic_stringIcNS_11char_traitsIcEENS_9allocatorIcEEEEPNS_11__tree_nodeIS6_PvEElEC2B8ue170006ENS_15__tree_iteratorIS6_SA_lEE, symObjAddr: 0x4610, symBinAddr: 0x1000065AC, symSize: 0x20 }
  - { offsetInCU: 0x14BB8, offset: 0x14BB8, size: 0x8, addend: 0x0, symName: __ZNSt3__112__hash_tableINS_17__hash_value_typeINS_12basic_stringIcNS_11char_traitsIcEENS_9allocatorIcEEEES7_EENS_22__unordered_map_hasherIS7_S8_NS_4hashIS7_EENS_8equal_toIS7_EELb1EEENS_21__unordered_map_equalIS7_S8_SD_SB_Lb1EEENS5_IS8_EEE16__emplace_uniqueB8ue170006IRS7_SK_EENS_9enable_ifIXsr21__can_extract_map_keyIT_S7_NS_4pairIKS7_S7_EEEE5valueENSN_INS_15__hash_iteratorIPNS_11__hash_nodeIS8_PvEEEEbEEE4typeEOSM_OT0_, symObjAddr: 0x4630, symBinAddr: 0x1000065CC, symSize: 0x48 }
  - { offsetInCU: 0x14C0E, offset: 0x14C0E, size: 0x8, addend: 0x0, symName: __ZNSt3__14pairINS_19__hash_map_iteratorINS_15__hash_iteratorIPNS_11__hash_nodeINS_17__hash_value_typeINS_12basic_stringIcNS_11char_traitsIcEENS_9allocatorIcEEEESA_EEPvEEEEEEbEC1B8ue170006ISF_bLSC_0EEEONS0_IT_T0_EE, symObjAddr: 0x4678, symBinAddr: 0x100006614, symSize: 0x34 }
  - { offsetInCU: 0x14C5F, offset: 0x14C5F, size: 0x8, addend: 0x0, symName: __ZNSt3__112__hash_tableINS_17__hash_value_typeINS_12basic_stringIcNS_11char_traitsIcEENS_9allocatorIcEEEES7_EENS_22__unordered_map_hasherIS7_S8_NS_4hashIS7_EENS_8equal_toIS7_EELb1EEENS_21__unordered_map_equalIS7_S8_SD_SB_Lb1EEENS5_IS8_EEE25__emplace_unique_key_argsIS7_JRS7_SK_EEENS_4pairINS_15__hash_iteratorIPNS_11__hash_nodeIS8_PvEEEEbEERKT_DpOT0_, symObjAddr: 0x46AC, symBinAddr: 0x100006648, symSize: 0x4E0 }
  - { offsetInCU: 0x14D54, offset: 0x14D54, size: 0x8, addend: 0x0, symName: __ZNSt3__112__hash_tableINS_17__hash_value_typeINS_12basic_stringIcNS_11char_traitsIcEENS_9allocatorIcEEEES7_EENS_22__unordered_map_hasherIS7_S8_NS_4hashIS7_EENS_8equal_toIS7_EELb1EEENS_21__unordered_map_equalIS7_S8_SD_SB_Lb1EEENS5_IS8_EEE13hash_functionB8ue170006Ev, symObjAddr: 0x4B8C, symBinAddr: 0x100006B28, symSize: 0x28 }
  - { offsetInCU: 0x14D7A, offset: 0x14D7A, size: 0x8, addend: 0x0, symName: __ZNKSt3__122__unordered_map_hasherINS_12basic_stringIcNS_11char_traitsIcEENS_9allocatorIcEEEENS_17__hash_value_typeIS6_S6_EENS_4hashIS6_EENS_8equal_toIS6_EELb1EEclB8ue170006ERKS6_, symObjAddr: 0x4BB4, symBinAddr: 0x100006B50, symSize: 0x2C }
  - { offsetInCU: 0x14DAF, offset: 0x14DAF, size: 0x8, addend: 0x0, symName: __ZNKSt3__112__hash_tableINS_17__hash_value_typeINS_12basic_stringIcNS_11char_traitsIcEENS_9allocatorIcEEEES7_EENS_22__unordered_map_hasherIS7_S8_NS_4hashIS7_EENS_8equal_toIS7_EELb1EEENS_21__unordered_map_equalIS7_S8_SD_SB_Lb1EEENS5_IS8_EEE12bucket_countB8ue170006Ev, symObjAddr: 0x4BE0, symBinAddr: 0x100006B7C, symSize: 0x28 }
  - { offsetInCU: 0x14DD5, offset: 0x14DD5, size: 0x8, addend: 0x0, symName: __ZNKSt3__110unique_ptrIA_PNS_16__hash_node_baseIPNS_11__hash_nodeINS_17__hash_value_typeINS_12basic_stringIcNS_11char_traitsIcEENS_9allocatorIcEEEES9_EEPvEEEENS_25__bucket_list_deallocatorINS7_ISF_EEEEEixB8ue170006Em, symObjAddr: 0x4CA0, symBinAddr: 0x100006C3C, symSize: 0x34 }
  - { offsetInCU: 0x14E0A, offset: 0x14E0A, size: 0x8, addend: 0x0, symName: __ZNKSt3__116__hash_node_baseIPNS_11__hash_nodeINS_17__hash_value_typeINS_12basic_stringIcNS_11char_traitsIcEENS_9allocatorIcEEEES8_EEPvEEE6__hashB8ue170006Ev, symObjAddr: 0x4CD4, symBinAddr: 0x100006C70, symSize: 0x18 }
  - { offsetInCU: 0x14E30, offset: 0x14E30, size: 0x8, addend: 0x0, symName: __ZNSt3__112__hash_tableINS_17__hash_value_typeINS_12basic_stringIcNS_11char_traitsIcEENS_9allocatorIcEEEES7_EENS_22__unordered_map_hasherIS7_S8_NS_4hashIS7_EENS_8equal_toIS7_EELb1EEENS_21__unordered_map_equalIS7_S8_SD_SB_Lb1EEENS5_IS8_EEE6key_eqB8ue170006Ev, symObjAddr: 0x4CEC, symBinAddr: 0x100006C88, symSize: 0x28 }
  - { offsetInCU: 0x14E56, offset: 0x14E56, size: 0x8, addend: 0x0, symName: __ZNKSt3__121__unordered_map_equalINS_12basic_stringIcNS_11char_traitsIcEENS_9allocatorIcEEEENS_17__hash_value_typeIS6_S6_EENS_8equal_toIS6_EENS_4hashIS6_EELb1EEclB8ue170006ERKS8_RKS6_, symObjAddr: 0x4D14, symBinAddr: 0x100006CB0, symSize: 0x48 }
  - { offsetInCU: 0x14E9A, offset: 0x14E9A, size: 0x8, addend: 0x0, symName: __ZNSt3__112__hash_tableINS_17__hash_value_typeINS_12basic_stringIcNS_11char_traitsIcEENS_9allocatorIcEEEES7_EENS_22__unordered_map_hasherIS7_S8_NS_4hashIS7_EENS_8equal_toIS7_EELb1EEENS_21__unordered_map_equalIS7_S8_SD_SB_Lb1EEENS5_IS8_EEE21__construct_node_hashIRS7_JSK_EEENS_10unique_ptrINS_11__hash_nodeIS8_PvEENS_22__hash_node_destructorINS5_ISO_EEEEEEmOT_DpOT0_, symObjAddr: 0x4D5C, symBinAddr: 0x100006CF8, symSize: 0x148 }
  - { offsetInCU: 0x14F22, offset: 0x14F22, size: 0x8, addend: 0x0, symName: __ZNSt3__112__hash_tableINS_17__hash_value_typeINS_12basic_stringIcNS_11char_traitsIcEENS_9allocatorIcEEEES7_EENS_22__unordered_map_hasherIS7_S8_NS_4hashIS7_EENS_8equal_toIS7_EELb1EEENS_21__unordered_map_equalIS7_S8_SD_SB_Lb1EEENS5_IS8_EEE4sizeB8ue170006Ev, symObjAddr: 0x4EA4, symBinAddr: 0x100006E40, symSize: 0x28 }
  - { offsetInCU: 0x14F48, offset: 0x14F48, size: 0x8, addend: 0x0, symName: __ZNSt3__112__hash_tableINS_17__hash_value_typeINS_12basic_stringIcNS_11char_traitsIcEENS_9allocatorIcEEEES7_EENS_22__unordered_map_hasherIS7_S8_NS_4hashIS7_EENS_8equal_toIS7_EELb1EEENS_21__unordered_map_equalIS7_S8_SD_SB_Lb1EEENS5_IS8_EEE15max_load_factorB8ue170006Ev, symObjAddr: 0x4ECC, symBinAddr: 0x100006E68, symSize: 0x28 }
  - { offsetInCU: 0x14F6E, offset: 0x14F6E, size: 0x8, addend: 0x0, symName: __ZNSt3__112__hash_tableINS_17__hash_value_typeINS_12basic_stringIcNS_11char_traitsIcEENS_9allocatorIcEEEES7_EENS_22__unordered_map_hasherIS7_S8_NS_4hashIS7_EENS_8equal_toIS7_EELb1EEENS_21__unordered_map_equalIS7_S8_SD_SB_Lb1EEENS5_IS8_EEE15__rehash_uniqueB8ue170006Em, symObjAddr: 0x4EF4, symBinAddr: 0x100006E90, symSize: 0x2C }
  - { offsetInCU: 0x14FA2, offset: 0x14FA2, size: 0x8, addend: 0x0, symName: __Z4ceilB8ue170006f, symObjAddr: 0x4F9C, symBinAddr: 0x100006F38, symSize: 0x18 }
  - { offsetInCU: 0x14FD1, offset: 0x14FD1, size: 0x8, addend: 0x0, symName: __ZNSt3__116__hash_node_baseIPNS_11__hash_nodeINS_17__hash_value_typeINS_12basic_stringIcNS_11char_traitsIcEENS_9allocatorIcEEEES8_EEPvEEE5__ptrB8ue170006Ev, symObjAddr: 0x4FB4, symBinAddr: 0x100006F50, symSize: 0x24 }
  - { offsetInCU: 0x14FF7, offset: 0x14FF7, size: 0x8, addend: 0x0, symName: __ZNKSt3__110unique_ptrINS_11__hash_nodeINS_17__hash_value_typeINS_12basic_stringIcNS_11char_traitsIcEENS_9allocatorIcEEEES8_EEPvEENS_22__hash_node_destructorINS6_ISB_EEEEEptB8ue170006Ev, symObjAddr: 0x4FD8, symBinAddr: 0x100006F74, symSize: 0x28 }
  - { offsetInCU: 0x1501D, offset: 0x1501D, size: 0x8, addend: 0x0, symName: __ZNKSt3__110unique_ptrINS_11__hash_nodeINS_17__hash_value_typeINS_12basic_stringIcNS_11char_traitsIcEENS_9allocatorIcEEEES8_EEPvEENS_22__hash_node_destructorINS6_ISB_EEEEE3getB8ue170006Ev, symObjAddr: 0x5000, symBinAddr: 0x100006F9C, symSize: 0x28 }
  - { offsetInCU: 0x15043, offset: 0x15043, size: 0x8, addend: 0x0, symName: __ZNSt3__110unique_ptrINS_11__hash_nodeINS_17__hash_value_typeINS_12basic_stringIcNS_11char_traitsIcEENS_9allocatorIcEEEES8_EEPvEENS_22__hash_node_destructorINS6_ISB_EEEEE7releaseB8ue170006Ev, symObjAddr: 0x5028, symBinAddr: 0x100006FC4, symSize: 0x44 }
  - { offsetInCU: 0x15078, offset: 0x15078, size: 0x8, addend: 0x0, symName: __ZNSt3__110unique_ptrINS_11__hash_nodeINS_17__hash_value_typeINS_12basic_stringIcNS_11char_traitsIcEENS_9allocatorIcEEEES8_EEPvEENS_22__hash_node_destructorINS6_ISB_EEEEED1B8ue170006Ev, symObjAddr: 0x506C, symBinAddr: 0x100007008, symSize: 0x2C }
  - { offsetInCU: 0x150A2, offset: 0x150A2, size: 0x8, addend: 0x0, symName: __ZNSt3__115__hash_iteratorIPNS_11__hash_nodeINS_17__hash_value_typeINS_12basic_stringIcNS_11char_traitsIcEENS_9allocatorIcEEEES8_EEPvEEEC1B8ue170006EPNS_16__hash_node_baseISC_EE, symObjAddr: 0x5098, symBinAddr: 0x100007034, symSize: 0x34 }
  - { offsetInCU: 0x150E1, offset: 0x150E1, size: 0x8, addend: 0x0, symName: __ZNSt3__14pairINS_15__hash_iteratorIPNS_11__hash_nodeINS_17__hash_value_typeINS_12basic_stringIcNS_11char_traitsIcEENS_9allocatorIcEEEES9_EEPvEEEEbEC1B8ue170006ISE_RbLSB_0EEEOT_OT0_, symObjAddr: 0x50CC, symBinAddr: 0x100007068, symSize: 0x3C }
  - { offsetInCU: 0x1513F, offset: 0x1513F, size: 0x8, addend: 0x0, symName: __ZNSt3__117__compressed_pairImNS_22__unordered_map_hasherINS_12basic_stringIcNS_11char_traitsIcEENS_9allocatorIcEEEENS_17__hash_value_typeIS7_S7_EENS_4hashIS7_EENS_8equal_toIS7_EELb1EEEE6secondB8ue170006Ev, symObjAddr: 0x5108, symBinAddr: 0x1000070A4, symSize: 0x24 }
  - { offsetInCU: 0x15165, offset: 0x15165, size: 0x8, addend: 0x0, symName: __ZNSt3__122__compressed_pair_elemINS_22__unordered_map_hasherINS_12basic_stringIcNS_11char_traitsIcEENS_9allocatorIcEEEENS_17__hash_value_typeIS7_S7_EENS_4hashIS7_EENS_8equal_toIS7_EELb1EEELi1ELb1EE5__getB8ue170006Ev, symObjAddr: 0x512C, symBinAddr: 0x1000070C8, symSize: 0x14 }
  - { offsetInCU: 0x1518B, offset: 0x1518B, size: 0x8, addend: 0x0, symName: __ZNKSt3__113__string_hashIcNS_9allocatorIcEEEclB8ue170006ERKNS_12basic_stringIcNS_11char_traitsIcEES2_EE, symObjAddr: 0x5140, symBinAddr: 0x1000070DC, symSize: 0x64 }
  - { offsetInCU: 0x151C0, offset: 0x151C0, size: 0x8, addend: 0x0, symName: __ZNKSt3__121__murmur2_or_cityhashImLm64EEclB8ue170006EPKvm, symObjAddr: 0x51E0, symBinAddr: 0x10000717C, symSize: 0x410 }
  - { offsetInCU: 0x1525A, offset: 0x1525A, size: 0x8, addend: 0x0, symName: __ZNSt3__121__murmur2_or_cityhashImLm64EE18__hash_len_0_to_16B8ue170006EPKcm, symObjAddr: 0x55F0, symBinAddr: 0x10000758C, symSize: 0x1C0 }
  - { offsetInCU: 0x15333, offset: 0x15333, size: 0x8, addend: 0x0, symName: __ZNSt3__121__murmur2_or_cityhashImLm64EE19__hash_len_17_to_32B8ue170006EPKcm, symObjAddr: 0x57B0, symBinAddr: 0x10000774C, symSize: 0x130 }
  - { offsetInCU: 0x1539C, offset: 0x1539C, size: 0x8, addend: 0x0, symName: __ZNSt3__121__murmur2_or_cityhashImLm64EE19__hash_len_33_to_64B8ue170006EPKcm, symObjAddr: 0x58E0, symBinAddr: 0x10000787C, symSize: 0x2B8 }
  - { offsetInCU: 0x15451, offset: 0x15451, size: 0x8, addend: 0x0, symName: __ZNSt3__121__murmur2_or_cityhashImLm64EE13__hash_len_16B8ue170006Emm, symObjAddr: 0x5BB8, symBinAddr: 0x100007B54, symSize: 0x80 }
  - { offsetInCU: 0x154AC, offset: 0x154AC, size: 0x8, addend: 0x0, symName: __ZNSt3__121__murmur2_or_cityhashImLm64EE29__weak_hash_len_32_with_seedsB8ue170006EPKcmm, symObjAddr: 0x5C38, symBinAddr: 0x100007BD4, symSize: 0x88 }
  - { offsetInCU: 0x154EB, offset: 0x154EB, size: 0x8, addend: 0x0, symName: __ZNSt3__121__murmur2_or_cityhashImLm64EE8__rotateB8ue170006Emi, symObjAddr: 0x5CC0, symBinAddr: 0x100007C5C, symSize: 0x64 }
  - { offsetInCU: 0x1551C, offset: 0x1551C, size: 0x8, addend: 0x0, symName: __ZNSt3__14pairImmEaSB8ue170006EOS1_, symObjAddr: 0x5D24, symBinAddr: 0x100007CC0, symSize: 0x30 }
  - { offsetInCU: 0x15551, offset: 0x15551, size: 0x8, addend: 0x0, symName: __ZNSt3__121__murmur2_or_cityhashImLm64EE11__shift_mixB8ue170006Em, symObjAddr: 0x5D90, symBinAddr: 0x100007D2C, symSize: 0x1C }
  - { offsetInCU: 0x15574, offset: 0x15574, size: 0x8, addend: 0x0, symName: __ZNSt3__121__murmur2_or_cityhashImLm64EE22__rotate_by_at_least_1B8ue170006Emi, symObjAddr: 0x5DAC, symBinAddr: 0x100007D48, symSize: 0x38 }
  - { offsetInCU: 0x155A5, offset: 0x155A5, size: 0x8, addend: 0x0, symName: __ZNSt3__121__murmur2_or_cityhashImLm64EE29__weak_hash_len_32_with_seedsB8ue170006Emmmmmm, symObjAddr: 0x5E04, symBinAddr: 0x100007DA0, symSize: 0xD8 }
  - { offsetInCU: 0x15622, offset: 0x15622, size: 0x8, addend: 0x0, symName: __ZNSt3__14pairImmEC1B8ue170006ImmLPv0EEEOT_OT0_, symObjAddr: 0x5EDC, symBinAddr: 0x100007E78, symSize: 0x3C }
  - { offsetInCU: 0x15680, offset: 0x15680, size: 0x8, addend: 0x0, symName: __ZNSt3__14pairImmEC2B8ue170006ImmLPv0EEEOT_OT0_, symObjAddr: 0x5F18, symBinAddr: 0x100007EB4, symSize: 0x34 }
  - { offsetInCU: 0x156DE, offset: 0x156DE, size: 0x8, addend: 0x0, symName: __ZNKSt3__110unique_ptrIA_PNS_16__hash_node_baseIPNS_11__hash_nodeINS_17__hash_value_typeINS_12basic_stringIcNS_11char_traitsIcEENS_9allocatorIcEEEES9_EEPvEEEENS_25__bucket_list_deallocatorINS7_ISF_EEEEE11get_deleterB8ue170006Ev, symObjAddr: 0x5F4C, symBinAddr: 0x100007EE8, symSize: 0x24 }
  - { offsetInCU: 0x15704, offset: 0x15704, size: 0x8, addend: 0x0, symName: __ZNKSt3__125__bucket_list_deallocatorINS_9allocatorIPNS_16__hash_node_baseIPNS_11__hash_nodeINS_17__hash_value_typeINS_12basic_stringIcNS_11char_traitsIcEENS1_IcEEEES9_EEPvEEEEEEE4sizeB8ue170006Ev, symObjAddr: 0x5F70, symBinAddr: 0x100007F0C, symSize: 0x28 }
  - { offsetInCU: 0x1572A, offset: 0x1572A, size: 0x8, addend: 0x0, symName: __ZNKSt3__117__compressed_pairIPPNS_16__hash_node_baseIPNS_11__hash_nodeINS_17__hash_value_typeINS_12basic_stringIcNS_11char_traitsIcEENS_9allocatorIcEEEES9_EEPvEEEENS_25__bucket_list_deallocatorINS7_ISF_EEEEE6secondB8ue170006Ev, symObjAddr: 0x5F98, symBinAddr: 0x100007F34, symSize: 0x28 }
  - { offsetInCU: 0x15750, offset: 0x15750, size: 0x8, addend: 0x0, symName: __ZNKSt3__122__compressed_pair_elemINS_25__bucket_list_deallocatorINS_9allocatorIPNS_16__hash_node_baseIPNS_11__hash_nodeINS_17__hash_value_typeINS_12basic_stringIcNS_11char_traitsIcEENS2_IcEEEESA_EEPvEEEEEEEELi1ELb0EE5__getB8ue170006Ev, symObjAddr: 0x5FC0, symBinAddr: 0x100007F5C, symSize: 0x14 }
  - { offsetInCU: 0x15776, offset: 0x15776, size: 0x8, addend: 0x0, symName: __ZNKSt3__117__compressed_pairImNS_9allocatorIPNS_16__hash_node_baseIPNS_11__hash_nodeINS_17__hash_value_typeINS_12basic_stringIcNS_11char_traitsIcEENS1_IcEEEES9_EEPvEEEEEEE5firstB8ue170006Ev, symObjAddr: 0x5FD4, symBinAddr: 0x100007F70, symSize: 0x24 }
  - { offsetInCU: 0x1579C, offset: 0x1579C, size: 0x8, addend: 0x0, symName: __ZNKSt3__122__compressed_pair_elemImLi0ELb0EE5__getB8ue170006Ev, symObjAddr: 0x5FF8, symBinAddr: 0x100007F94, symSize: 0x14 }
  - { offsetInCU: 0x157C2, offset: 0x157C2, size: 0x8, addend: 0x0, symName: __ZNKSt3__117__compressed_pairIPPNS_16__hash_node_baseIPNS_11__hash_nodeINS_17__hash_value_typeINS_12basic_stringIcNS_11char_traitsIcEENS_9allocatorIcEEEES9_EEPvEEEENS_25__bucket_list_deallocatorINS7_ISF_EEEEE5firstB8ue170006Ev, symObjAddr: 0x600C, symBinAddr: 0x100007FA8, symSize: 0x24 }
  - { offsetInCU: 0x157E8, offset: 0x157E8, size: 0x8, addend: 0x0, symName: __ZNKSt3__122__compressed_pair_elemIPPNS_16__hash_node_baseIPNS_11__hash_nodeINS_17__hash_value_typeINS_12basic_stringIcNS_11char_traitsIcEENS_9allocatorIcEEEES9_EEPvEEEELi0ELb0EE5__getB8ue170006Ev, symObjAddr: 0x6030, symBinAddr: 0x100007FCC, symSize: 0x14 }
  - { offsetInCU: 0x1580E, offset: 0x1580E, size: 0x8, addend: 0x0, symName: __ZNSt3__117__compressed_pairIfNS_21__unordered_map_equalINS_12basic_stringIcNS_11char_traitsIcEENS_9allocatorIcEEEENS_17__hash_value_typeIS7_S7_EENS_8equal_toIS7_EENS_4hashIS7_EELb1EEEE6secondB8ue170006Ev, symObjAddr: 0x6044, symBinAddr: 0x100007FE0, symSize: 0x24 }
  - { offsetInCU: 0x15834, offset: 0x15834, size: 0x8, addend: 0x0, symName: __ZNSt3__122__compressed_pair_elemINS_21__unordered_map_equalINS_12basic_stringIcNS_11char_traitsIcEENS_9allocatorIcEEEENS_17__hash_value_typeIS7_S7_EENS_8equal_toIS7_EENS_4hashIS7_EELb1EEELi1ELb1EE5__getB8ue170006Ev, symObjAddr: 0x6068, symBinAddr: 0x100008004, symSize: 0x14 }
  - { offsetInCU: 0x1585A, offset: 0x1585A, size: 0x8, addend: 0x0, symName: __ZNKSt3__18equal_toINS_12basic_stringIcNS_11char_traitsIcEENS_9allocatorIcEEEEEclB8ue170006ERKS6_S9_, symObjAddr: 0x607C, symBinAddr: 0x100008018, symSize: 0x34 }
  - { offsetInCU: 0x1589E, offset: 0x1589E, size: 0x8, addend: 0x0, symName: __ZNKSt3__117__hash_value_typeINS_12basic_stringIcNS_11char_traitsIcEENS_9allocatorIcEEEES6_E11__get_valueB8ue170006Ev, symObjAddr: 0x60B0, symBinAddr: 0x10000804C, symSize: 0x24 }
  - { offsetInCU: 0x158C4, offset: 0x158C4, size: 0x8, addend: 0x0, symName: __ZNSt3__116allocator_traitsINS_9allocatorINS_11__hash_nodeINS_17__hash_value_typeINS_12basic_stringIcNS_11char_traitsIcEENS1_IcEEEES8_EEPvEEEEE8allocateB8ue170006ERSC_m, symObjAddr: 0x6254, symBinAddr: 0x1000081F0, symSize: 0x2C }
  - { offsetInCU: 0x158F7, offset: 0x158F7, size: 0x8, addend: 0x0, symName: __ZNSt3__122__hash_node_destructorINS_9allocatorINS_11__hash_nodeINS_17__hash_value_typeINS_12basic_stringIcNS_11char_traitsIcEENS1_IcEEEES8_EEPvEEEEEC1B8ue170006ERSC_b, symObjAddr: 0x6280, symBinAddr: 0x10000821C, symSize: 0x48 }
  - { offsetInCU: 0x15945, offset: 0x15945, size: 0x8, addend: 0x0, symName: __ZNSt3__110unique_ptrINS_11__hash_nodeINS_17__hash_value_typeINS_12basic_stringIcNS_11char_traitsIcEENS_9allocatorIcEEEES8_EEPvEENS_22__hash_node_destructorINS6_ISB_EEEEEC1B8ue170006ILb1EvEEPSB_NS_16__dependent_typeINS_27__unique_ptr_deleter_sfinaeISE_EEXT_EE20__good_rval_ref_typeE, symObjAddr: 0x62C8, symBinAddr: 0x100008264, symSize: 0x3C }
  - { offsetInCU: 0x15996, offset: 0x15996, size: 0x8, addend: 0x0, symName: __ZNSt3__116allocator_traitsINS_9allocatorINS_11__hash_nodeINS_17__hash_value_typeINS_12basic_stringIcNS_11char_traitsIcEENS1_IcEEEES8_EEPvEEEEE9constructB8ue170006INS_4pairIKS8_S8_EEJRS8_SI_EvEEvRSC_PT_DpOT0_, symObjAddr: 0x6304, symBinAddr: 0x1000082A0, symSize: 0x3C }
  - { offsetInCU: 0x15A01, offset: 0x15A01, size: 0x8, addend: 0x0, symName: __ZNSt3__110unique_ptrINS_11__hash_nodeINS_17__hash_value_typeINS_12basic_stringIcNS_11char_traitsIcEENS_9allocatorIcEEEES8_EEPvEENS_22__hash_node_destructorINS6_ISB_EEEEE11get_deleterB8ue170006Ev, symObjAddr: 0x6340, symBinAddr: 0x1000082DC, symSize: 0x24 }
  - { offsetInCU: 0x15A27, offset: 0x15A27, size: 0x8, addend: 0x0, symName: __ZNSt3__19allocatorINS_11__hash_nodeINS_17__hash_value_typeINS_12basic_stringIcNS_11char_traitsIcEENS0_IcEEEES7_EEPvEEE8allocateB8ue170006Em, symObjAddr: 0x6364, symBinAddr: 0x100008300, symSize: 0x58 }
  - { offsetInCU: 0x15A65, offset: 0x15A65, size: 0x8, addend: 0x0, symName: __ZNSt3__116allocator_traitsINS_9allocatorINS_11__hash_nodeINS_17__hash_value_typeINS_12basic_stringIcNS_11char_traitsIcEENS1_IcEEEES8_EEPvEEEEE8max_sizeB8ue170006ISC_vEEmRKSC_, symObjAddr: 0x63BC, symBinAddr: 0x100008358, symSize: 0x24 }
  - { offsetInCU: 0x15A93, offset: 0x15A93, size: 0x8, addend: 0x0, symName: __ZNKSt3__19allocatorINS_11__hash_nodeINS_17__hash_value_typeINS_12basic_stringIcNS_11char_traitsIcEENS0_IcEEEES7_EEPvEEE8max_sizeB8ue170006Ev, symObjAddr: 0x63E0, symBinAddr: 0x10000837C, symSize: 0x14 }
  - { offsetInCU: 0x15AB9, offset: 0x15AB9, size: 0x8, addend: 0x0, symName: __ZNSt3__122__hash_node_destructorINS_9allocatorINS_11__hash_nodeINS_17__hash_value_typeINS_12basic_stringIcNS_11char_traitsIcEENS1_IcEEEES8_EEPvEEEEEC2B8ue170006ERSC_b, symObjAddr: 0x63F4, symBinAddr: 0x100008390, symSize: 0x38 }
  - { offsetInCU: 0x15B01, offset: 0x15B01, size: 0x8, addend: 0x0, symName: __ZNSt3__110unique_ptrINS_11__hash_nodeINS_17__hash_value_typeINS_12basic_stringIcNS_11char_traitsIcEENS_9allocatorIcEEEES8_EEPvEENS_22__hash_node_destructorINS6_ISB_EEEEEC2B8ue170006ILb1EvEEPSB_NS_16__dependent_typeINS_27__unique_ptr_deleter_sfinaeISE_EEXT_EE20__good_rval_ref_typeE, symObjAddr: 0x642C, symBinAddr: 0x1000083C8, symSize: 0x48 }
  - { offsetInCU: 0x15B52, offset: 0x15B52, size: 0x8, addend: 0x0, symName: __ZNSt3__117__compressed_pairIPNS_11__hash_nodeINS_17__hash_value_typeINS_12basic_stringIcNS_11char_traitsIcEENS_9allocatorIcEEEES8_EEPvEENS_22__hash_node_destructorINS6_ISB_EEEEEC1B8ue170006IRSC_SF_EEOT_OT0_, symObjAddr: 0x6474, symBinAddr: 0x100008410, symSize: 0x3C }
  - { offsetInCU: 0x15BAA, offset: 0x15BAA, size: 0x8, addend: 0x0, symName: __ZNSt3__117__compressed_pairIPNS_11__hash_nodeINS_17__hash_value_typeINS_12basic_stringIcNS_11char_traitsIcEENS_9allocatorIcEEEES8_EEPvEENS_22__hash_node_destructorINS6_ISB_EEEEEC2B8ue170006IRSC_SF_EEOT_OT0_, symObjAddr: 0x64B0, symBinAddr: 0x10000844C, symSize: 0x48 }
  - { offsetInCU: 0x15C02, offset: 0x15C02, size: 0x8, addend: 0x0, symName: __ZNSt3__122__compressed_pair_elemIPNS_11__hash_nodeINS_17__hash_value_typeINS_12basic_stringIcNS_11char_traitsIcEENS_9allocatorIcEEEES8_EEPvEELi0ELb0EEC2B8ue170006IRSC_vEEOT_, symObjAddr: 0x64F8, symBinAddr: 0x100008494, symSize: 0x24 }
  - { offsetInCU: 0x15C44, offset: 0x15C44, size: 0x8, addend: 0x0, symName: __ZNSt3__122__compressed_pair_elemINS_22__hash_node_destructorINS_9allocatorINS_11__hash_nodeINS_17__hash_value_typeINS_12basic_stringIcNS_11char_traitsIcEENS2_IcEEEES9_EEPvEEEEEELi1ELb0EEC2B8ue170006ISE_vEEOT_, symObjAddr: 0x651C, symBinAddr: 0x1000084B8, symSize: 0x24 }
  - { offsetInCU: 0x15C86, offset: 0x15C86, size: 0x8, addend: 0x0, symName: __ZNSt3__19allocatorINS_11__hash_nodeINS_17__hash_value_typeINS_12basic_stringIcNS_11char_traitsIcEENS0_IcEEEES7_EEPvEEE9constructB8ue170006INS_4pairIKS7_S7_EEJRS7_SG_EEEvPT_DpOT0_, symObjAddr: 0x6540, symBinAddr: 0x1000084DC, symSize: 0x38 }
  - { offsetInCU: 0x15CEF, offset: 0x15CEF, size: 0x8, addend: 0x0, symName: __ZNSt3__14pairIKNS_12basic_stringIcNS_11char_traitsIcEENS_9allocatorIcEEEES6_EC1B8ue170006IRS6_SA_LPv0EEEOT_OT0_, symObjAddr: 0x6578, symBinAddr: 0x100008514, symSize: 0x3C }
  - { offsetInCU: 0x15D4D, offset: 0x15D4D, size: 0x8, addend: 0x0, symName: __ZNSt3__14pairIKNS_12basic_stringIcNS_11char_traitsIcEENS_9allocatorIcEEEES6_EC2B8ue170006IRS6_SA_LPv0EEEOT_OT0_, symObjAddr: 0x65B4, symBinAddr: 0x100008550, symSize: 0x70 }
  - { offsetInCU: 0x15DAB, offset: 0x15DAB, size: 0x8, addend: 0x0, symName: __ZNSt3__117__compressed_pairIPNS_11__hash_nodeINS_17__hash_value_typeINS_12basic_stringIcNS_11char_traitsIcEENS_9allocatorIcEEEES8_EEPvEENS_22__hash_node_destructorINS6_ISB_EEEEE6secondB8ue170006Ev, symObjAddr: 0x6624, symBinAddr: 0x1000085C0, symSize: 0x28 }
  - { offsetInCU: 0x15DD1, offset: 0x15DD1, size: 0x8, addend: 0x0, symName: __ZNSt3__122__compressed_pair_elemINS_22__hash_node_destructorINS_9allocatorINS_11__hash_nodeINS_17__hash_value_typeINS_12basic_stringIcNS_11char_traitsIcEENS2_IcEEEES9_EEPvEEEEEELi1ELb0EE5__getB8ue170006Ev, symObjAddr: 0x664C, symBinAddr: 0x1000085E8, symSize: 0x14 }
  - { offsetInCU: 0x15DF7, offset: 0x15DF7, size: 0x8, addend: 0x0, symName: __ZNSt3__117__compressed_pairImNS_22__unordered_map_hasherINS_12basic_stringIcNS_11char_traitsIcEENS_9allocatorIcEEEENS_17__hash_value_typeIS7_S7_EENS_4hashIS7_EENS_8equal_toIS7_EELb1EEEE5firstB8ue170006Ev, symObjAddr: 0x6660, symBinAddr: 0x1000085FC, symSize: 0x24 }
  - { offsetInCU: 0x15E1D, offset: 0x15E1D, size: 0x8, addend: 0x0, symName: __ZNSt3__117__compressed_pairIfNS_21__unordered_map_equalINS_12basic_stringIcNS_11char_traitsIcEENS_9allocatorIcEEEENS_17__hash_value_typeIS7_S7_EENS_8equal_toIS7_EENS_4hashIS7_EELb1EEEE5firstB8ue170006Ev, symObjAddr: 0x6684, symBinAddr: 0x100008620, symSize: 0x24 }
  - { offsetInCU: 0x15E43, offset: 0x15E43, size: 0x8, addend: 0x0, symName: __ZNSt3__122__compressed_pair_elemIfLi0ELb0EE5__getB8ue170006Ev, symObjAddr: 0x66A8, symBinAddr: 0x100008644, symSize: 0x14 }
  - { offsetInCU: 0x15E69, offset: 0x15E69, size: 0x8, addend: 0x0, symName: __ZNSt3__112__hash_tableINS_17__hash_value_typeINS_12basic_stringIcNS_11char_traitsIcEENS_9allocatorIcEEEES7_EENS_22__unordered_map_hasherIS7_S8_NS_4hashIS7_EENS_8equal_toIS7_EELb1EEENS_21__unordered_map_equalIS7_S8_SD_SB_Lb1EEENS5_IS8_EEE8__rehashILb1EEEvm, symObjAddr: 0x66BC, symBinAddr: 0x100008658, symSize: 0x1A8 }
  - { offsetInCU: 0x15EB9, offset: 0x15EB9, size: 0x8, addend: 0x0, symName: __ZNSt3__112__hash_tableINS_17__hash_value_typeINS_12basic_stringIcNS_11char_traitsIcEENS_9allocatorIcEEEES7_EENS_22__unordered_map_hasherIS7_S8_NS_4hashIS7_EENS_8equal_toIS7_EELb1EEENS_21__unordered_map_equalIS7_S8_SD_SB_Lb1EEENS5_IS8_EEE11__do_rehashILb1EEEvm, symObjAddr: 0x6864, symBinAddr: 0x100008800, symSize: 0x288 }
  - { offsetInCU: 0x15F9C, offset: 0x15F9C, size: 0x8, addend: 0x0, symName: __ZNSt3__110unique_ptrIA_PNS_16__hash_node_baseIPNS_11__hash_nodeINS_17__hash_value_typeINS_12basic_stringIcNS_11char_traitsIcEENS_9allocatorIcEEEES9_EEPvEEEENS_25__bucket_list_deallocatorINS7_ISF_EEEEE11get_deleterB8ue170006Ev, symObjAddr: 0x6B58, symBinAddr: 0x100008AF4, symSize: 0x24 }
  - { offsetInCU: 0x15FC2, offset: 0x15FC2, size: 0x8, addend: 0x0, symName: __ZNSt3__110unique_ptrIA_PNS_16__hash_node_baseIPNS_11__hash_nodeINS_17__hash_value_typeINS_12basic_stringIcNS_11char_traitsIcEENS_9allocatorIcEEEES9_EEPvEEEENS_25__bucket_list_deallocatorINS7_ISF_EEEEE5resetB8ue170006IPSF_EENS_9enable_ifIXsr28_CheckArrayPointerConversionIT_EE5valueEvE4typeESO_, symObjAddr: 0x6B7C, symBinAddr: 0x100008B18, symSize: 0x78 }
  - { offsetInCU: 0x1600F, offset: 0x1600F, size: 0x8, addend: 0x0, symName: __ZNSt3__116allocator_traitsINS_9allocatorIPNS_16__hash_node_baseIPNS_11__hash_nodeINS_17__hash_value_typeINS_12basic_stringIcNS_11char_traitsIcEENS1_IcEEEES9_EEPvEEEEEEE8allocateB8ue170006ERSG_m, symObjAddr: 0x6BF4, symBinAddr: 0x100008B90, symSize: 0x2C }
  - { offsetInCU: 0x16042, offset: 0x16042, size: 0x8, addend: 0x0, symName: __ZNSt3__19allocatorIPNS_16__hash_node_baseIPNS_11__hash_nodeINS_17__hash_value_typeINS_12basic_stringIcNS_11char_traitsIcEENS0_IcEEEES8_EEPvEEEEE8allocateB8ue170006Em, symObjAddr: 0x6C20, symBinAddr: 0x100008BBC, symSize: 0x58 }
  - { offsetInCU: 0x16080, offset: 0x16080, size: 0x8, addend: 0x0, symName: __ZNSt3__116allocator_traitsINS_9allocatorIPNS_16__hash_node_baseIPNS_11__hash_nodeINS_17__hash_value_typeINS_12basic_stringIcNS_11char_traitsIcEENS1_IcEEEES9_EEPvEEEEEEE8max_sizeB8ue170006ISG_vEEmRKSG_, symObjAddr: 0x6C78, symBinAddr: 0x100008C14, symSize: 0x24 }
  - { offsetInCU: 0x160AE, offset: 0x160AE, size: 0x8, addend: 0x0, symName: __ZNKSt3__19allocatorIPNS_16__hash_node_baseIPNS_11__hash_nodeINS_17__hash_value_typeINS_12basic_stringIcNS_11char_traitsIcEENS0_IcEEEES8_EEPvEEEEE8max_sizeB8ue170006Ev, symObjAddr: 0x6C9C, symBinAddr: 0x100008C38, symSize: 0x14 }
  - { offsetInCU: 0x160D4, offset: 0x160D4, size: 0x8, addend: 0x0, symName: __ZNKSt3__117__compressed_pairIPNS_11__hash_nodeINS_17__hash_value_typeINS_12basic_stringIcNS_11char_traitsIcEENS_9allocatorIcEEEES8_EEPvEENS_22__hash_node_destructorINS6_ISB_EEEEE5firstB8ue170006Ev, symObjAddr: 0x6D20, symBinAddr: 0x100008CBC, symSize: 0x24 }
  - { offsetInCU: 0x160FA, offset: 0x160FA, size: 0x8, addend: 0x0, symName: __ZNKSt3__122__compressed_pair_elemIPNS_11__hash_nodeINS_17__hash_value_typeINS_12basic_stringIcNS_11char_traitsIcEENS_9allocatorIcEEEES8_EEPvEELi0ELb0EE5__getB8ue170006Ev, symObjAddr: 0x6D44, symBinAddr: 0x100008CE0, symSize: 0x14 }
  - { offsetInCU: 0x16120, offset: 0x16120, size: 0x8, addend: 0x0, symName: __ZNSt3__117__compressed_pairIPNS_11__hash_nodeINS_17__hash_value_typeINS_12basic_stringIcNS_11char_traitsIcEENS_9allocatorIcEEEES8_EEPvEENS_22__hash_node_destructorINS6_ISB_EEEEE5firstB8ue170006Ev, symObjAddr: 0x6D58, symBinAddr: 0x100008CF4, symSize: 0x24 }
  - { offsetInCU: 0x16146, offset: 0x16146, size: 0x8, addend: 0x0, symName: __ZNSt3__122__compressed_pair_elemIPNS_11__hash_nodeINS_17__hash_value_typeINS_12basic_stringIcNS_11char_traitsIcEENS_9allocatorIcEEEES8_EEPvEELi0ELb0EE5__getB8ue170006Ev, symObjAddr: 0x6D7C, symBinAddr: 0x100008D18, symSize: 0x14 }
  - { offsetInCU: 0x1616C, offset: 0x1616C, size: 0x8, addend: 0x0, symName: __ZNSt3__110unique_ptrINS_11__hash_nodeINS_17__hash_value_typeINS_12basic_stringIcNS_11char_traitsIcEENS_9allocatorIcEEEES8_EEPvEENS_22__hash_node_destructorINS6_ISB_EEEEED2B8ue170006Ev, symObjAddr: 0x6D90, symBinAddr: 0x100008D2C, symSize: 0x30 }
  - { offsetInCU: 0x16196, offset: 0x16196, size: 0x8, addend: 0x0, symName: __ZNSt3__110unique_ptrINS_11__hash_nodeINS_17__hash_value_typeINS_12basic_stringIcNS_11char_traitsIcEENS_9allocatorIcEEEES8_EEPvEENS_22__hash_node_destructorINS6_ISB_EEEEE5resetB8ue170006EPSB_, symObjAddr: 0x6DC0, symBinAddr: 0x100008D5C, symSize: 0x78 }
  - { offsetInCU: 0x161DA, offset: 0x161DA, size: 0x8, addend: 0x0, symName: __ZNSt3__122__hash_node_destructorINS_9allocatorINS_11__hash_nodeINS_17__hash_value_typeINS_12basic_stringIcNS_11char_traitsIcEENS1_IcEEEES8_EEPvEEEEEclB8ue170006EPSB_, symObjAddr: 0x6E38, symBinAddr: 0x100008DD4, symSize: 0x94 }
  - { offsetInCU: 0x1620F, offset: 0x1620F, size: 0x8, addend: 0x0, symName: __ZNSt3__115__hash_iteratorIPNS_11__hash_nodeINS_17__hash_value_typeINS_12basic_stringIcNS_11char_traitsIcEENS_9allocatorIcEEEES8_EEPvEEEC2B8ue170006EPNS_16__hash_node_baseISC_EE, symObjAddr: 0x6ECC, symBinAddr: 0x100008E68, symSize: 0x20 }
  - { offsetInCU: 0x16248, offset: 0x16248, size: 0x8, addend: 0x0, symName: __ZNSt3__14pairINS_15__hash_iteratorIPNS_11__hash_nodeINS_17__hash_value_typeINS_12basic_stringIcNS_11char_traitsIcEENS_9allocatorIcEEEES9_EEPvEEEEbEC2B8ue170006ISE_RbLSB_0EEEOT_OT0_, symObjAddr: 0x6EEC, symBinAddr: 0x100008E88, symSize: 0x38 }
  - { offsetInCU: 0x162A6, offset: 0x162A6, size: 0x8, addend: 0x0, symName: __ZNSt3__14pairINS_19__hash_map_iteratorINS_15__hash_iteratorIPNS_11__hash_nodeINS_17__hash_value_typeINS_12basic_stringIcNS_11char_traitsIcEENS_9allocatorIcEEEESA_EEPvEEEEEEbEC2B8ue170006ISF_bLSC_0EEEONS0_IT_T0_EE, symObjAddr: 0x6F24, symBinAddr: 0x100008EC0, symSize: 0x50 }
  - { offsetInCU: 0x162F7, offset: 0x162F7, size: 0x8, addend: 0x0, symName: __ZNSt3__119__hash_map_iteratorINS_15__hash_iteratorIPNS_11__hash_nodeINS_17__hash_value_typeINS_12basic_stringIcNS_11char_traitsIcEENS_9allocatorIcEEEES9_EEPvEEEEEC1B8ue170006ESE_, symObjAddr: 0x6F74, symBinAddr: 0x100008F10, symSize: 0x34 }
  - { offsetInCU: 0x16330, offset: 0x16330, size: 0x8, addend: 0x0, symName: __ZNSt3__119__hash_map_iteratorINS_15__hash_iteratorIPNS_11__hash_nodeINS_17__hash_value_typeINS_12basic_stringIcNS_11char_traitsIcEENS_9allocatorIcEEEES9_EEPvEEEEEC2B8ue170006ESE_, symObjAddr: 0x6FA8, symBinAddr: 0x100008F44, symSize: 0x20 }
  - { offsetInCU: 0x16369, offset: 0x16369, size: 0x8, addend: 0x0, symName: __ZNSt3__111char_traitsIcE6lengthB8ue170006EPKc, symObjAddr: 0x70AC, symBinAddr: 0x100009048, symSize: 0x34 }
  - { offsetInCU: 0x1638C, offset: 0x1638C, size: 0x8, addend: 0x0, symName: __ZNSt3__111char_traitsIcE4findB8ue170006EPKcmRS2_, symObjAddr: 0x7234, symBinAddr: 0x1000091D0, symSize: 0x70 }
  - { offsetInCU: 0x163CB, offset: 0x163CB, size: 0x8, addend: 0x0, symName: __ZNSt3__19allocatorIcEC1B8ue170006Ev, symObjAddr: 0x7308, symBinAddr: 0x1000092A4, symSize: 0x2C }
  - { offsetInCU: 0x163F5, offset: 0x163F5, size: 0x8, addend: 0x0, symName: __ZNSt3__19allocatorIcEC2B8ue170006Ev, symObjAddr: 0x7334, symBinAddr: 0x1000092D0, symSize: 0x2C }
  - { offsetInCU: 0x1641F, offset: 0x1641F, size: 0x8, addend: 0x0, symName: __ZNSt3__116__non_trivial_ifILb1ENS_9allocatorIcEEEC2B8ue170006Ev, symObjAddr: 0x7360, symBinAddr: 0x1000092FC, symSize: 0x14 }
  - { offsetInCU: 0x16449, offset: 0x16449, size: 0x8, addend: 0x0, symName: __ZNSt3__112basic_stringIcNS_11char_traitsIcEENS_9allocatorIcEEEC2B8ue170006ILi0EEEPKc, symObjAddr: 0x7374, symBinAddr: 0x100009310, symSize: 0x58 }
  - { offsetInCU: 0x16488, offset: 0x16488, size: 0x8, addend: 0x0, symName: __ZNSt3__117__compressed_pairINS_12basic_stringIcNS_11char_traitsIcEENS_9allocatorIcEEE5__repES5_EC1B8ue170006INS_18__default_init_tagESA_EEOT_OT0_, symObjAddr: 0x73CC, symBinAddr: 0x100009368, symSize: 0x3C }
  - { offsetInCU: 0x164E0, offset: 0x164E0, size: 0x8, addend: 0x0, symName: __ZNSt3__117__compressed_pairINS_12basic_stringIcNS_11char_traitsIcEENS_9allocatorIcEEE5__repES5_EC2B8ue170006INS_18__default_init_tagESA_EEOT_OT0_, symObjAddr: 0x7408, symBinAddr: 0x1000093A4, symSize: 0x3C }
  - { offsetInCU: 0x16538, offset: 0x16538, size: 0x8, addend: 0x0, symName: __ZNSt3__122__compressed_pair_elemINS_12basic_stringIcNS_11char_traitsIcEENS_9allocatorIcEEE5__repELi0ELb0EEC2B8ue170006ENS_18__default_init_tagE, symObjAddr: 0x7444, symBinAddr: 0x1000093E0, symSize: 0x14 }
  - { offsetInCU: 0x1656D, offset: 0x1656D, size: 0x8, addend: 0x0, symName: __ZNSt3__122__compressed_pair_elemINS_9allocatorIcEELi1ELb1EEC2B8ue170006ENS_18__default_init_tagE, symObjAddr: 0x7458, symBinAddr: 0x1000093F4, symSize: 0x2C }
  - { offsetInCU: 0x165A2, offset: 0x165A2, size: 0x8, addend: 0x0, symName: __ZNSt3__16__treeINS_12basic_stringIcNS_11char_traitsIcEENS_9allocatorIcEEEENS_4lessIS6_EENS4_IS6_EEE4findIS6_EENS_15__tree_iteratorIS6_PNS_11__tree_nodeIS6_PvEElEERKT_, symObjAddr: 0x7484, symBinAddr: 0x100009420, symSize: 0xF8 }
  - { offsetInCU: 0x165F1, offset: 0x165F1, size: 0x8, addend: 0x0, symName: __ZNSt3__16__treeINS_12basic_stringIcNS_11char_traitsIcEENS_9allocatorIcEEEENS_4lessIS6_EENS4_IS6_EEE13__lower_boundIS6_EENS_15__tree_iteratorIS6_PNS_11__tree_nodeIS6_PvEElEERKT_SG_PNS_15__tree_end_nodeIPNS_16__tree_node_baseISE_EEEE, symObjAddr: 0x757C, symBinAddr: 0x100009518, symSize: 0xA4 }
  - { offsetInCU: 0x1664F, offset: 0x1664F, size: 0x8, addend: 0x0, symName: __ZNSt3__16__treeINS_12basic_stringIcNS_11char_traitsIcEENS_9allocatorIcEEEENS_4lessIS6_EENS4_IS6_EEE3endB8ue170006Ev, symObjAddr: 0x7654, symBinAddr: 0x1000095F0, symSize: 0x34 }
  - { offsetInCU: 0x16675, offset: 0x16675, size: 0x8, addend: 0x0, symName: __ZNKSt3__115__tree_iteratorINS_12basic_stringIcNS_11char_traitsIcEENS_9allocatorIcEEEEPNS_11__tree_nodeIS6_PvEElEdeB8ue170006Ev, symObjAddr: 0x7688, symBinAddr: 0x100009624, symSize: 0x28 }
  - { offsetInCU: 0x1669B, offset: 0x1669B, size: 0x8, addend: 0x0, symName: __ZNSt3__115__tree_iteratorINS_12basic_stringIcNS_11char_traitsIcEENS_9allocatorIcEEEEPNS_11__tree_nodeIS6_PvEElEC1B8ue170006EPNS_15__tree_end_nodeIPNS_16__tree_node_baseIS8_EEEE, symObjAddr: 0x76B0, symBinAddr: 0x10000964C, symSize: 0x34 }
  - { offsetInCU: 0x166D4, offset: 0x166D4, size: 0x8, addend: 0x0, symName: __ZNSt3__115__tree_iteratorINS_12basic_stringIcNS_11char_traitsIcEENS_9allocatorIcEEEEPNS_11__tree_nodeIS6_PvEElEC2B8ue170006EPNS_15__tree_end_nodeIPNS_16__tree_node_baseIS8_EEEE, symObjAddr: 0x76E4, symBinAddr: 0x100009680, symSize: 0x20 }
  - { offsetInCU: 0x1670D, offset: 0x1670D, size: 0x8, addend: 0x0, symName: __ZNKSt3__115__tree_iteratorINS_12basic_stringIcNS_11char_traitsIcEENS_9allocatorIcEEEEPNS_11__tree_nodeIS6_PvEElE8__get_npB8ue170006Ev, symObjAddr: 0x7734, symBinAddr: 0x1000096D0, symSize: 0x18 }
  - { offsetInCU: 0x16733, offset: 0x16733, size: 0x8, addend: 0x0, symName: __ZNSt3__113unordered_mapINS_12basic_stringIcNS_11char_traitsIcEENS_9allocatorIcEEEES6_NS_4hashIS6_EENS_8equal_toIS6_EENS4_INS_4pairIKS6_S6_EEEEE4findB8ue170006ERSC_, symObjAddr: 0x777C, symBinAddr: 0x100009718, symSize: 0x40 }
  - { offsetInCU: 0x16768, offset: 0x16768, size: 0x8, addend: 0x0, symName: __ZNSt3__113unordered_mapINS_12basic_stringIcNS_11char_traitsIcEENS_9allocatorIcEEEES6_NS_4hashIS6_EENS_8equal_toIS6_EENS4_INS_4pairIKS6_S6_EEEEE3endB8ue170006Ev, symObjAddr: 0x77EC, symBinAddr: 0x100009788, symSize: 0x38 }
  - { offsetInCU: 0x1678E, offset: 0x1678E, size: 0x8, addend: 0x0, symName: __ZNKSt3__119__hash_map_iteratorINS_15__hash_iteratorIPNS_11__hash_nodeINS_17__hash_value_typeINS_12basic_stringIcNS_11char_traitsIcEENS_9allocatorIcEEEES9_EEPvEEEEEptB8ue170006Ev, symObjAddr: 0x7888, symBinAddr: 0x100009824, symSize: 0x2C }
  - { offsetInCU: 0x167B4, offset: 0x167B4, size: 0x8, addend: 0x0, symName: __ZNSt3__112__hash_tableINS_17__hash_value_typeINS_12basic_stringIcNS_11char_traitsIcEENS_9allocatorIcEEEES7_EENS_22__unordered_map_hasherIS7_S8_NS_4hashIS7_EENS_8equal_toIS7_EELb1EEENS_21__unordered_map_equalIS7_S8_SD_SB_Lb1EEENS5_IS8_EEE4findIS7_EENS_15__hash_iteratorIPNS_11__hash_nodeIS8_PvEEEERKT_, symObjAddr: 0x78B4, symBinAddr: 0x100009850, symSize: 0x1B0 }
  - { offsetInCU: 0x1683E, offset: 0x1683E, size: 0x8, addend: 0x0, symName: __ZNSt3__112__hash_tableINS_17__hash_value_typeINS_12basic_stringIcNS_11char_traitsIcEENS_9allocatorIcEEEES7_EENS_22__unordered_map_hasherIS7_S8_NS_4hashIS7_EENS_8equal_toIS7_EELb1EEENS_21__unordered_map_equalIS7_S8_SD_SB_Lb1EEENS5_IS8_EEE3endEv, symObjAddr: 0x7A64, symBinAddr: 0x100009A00, symSize: 0x2C }
  - { offsetInCU: 0x16866, offset: 0x16866, size: 0x8, addend: 0x0, symName: __ZNSt12out_of_rangeC1B8ue170006EPKc, symObjAddr: 0x7AC0, symBinAddr: 0x100009A5C, symSize: 0x34 }
  - { offsetInCU: 0x1689E, offset: 0x1689E, size: 0x8, addend: 0x0, symName: __ZNSt12out_of_rangeC2B8ue170006EPKc, symObjAddr: 0x7AF4, symBinAddr: 0x100009A90, symSize: 0x4C }
  - { offsetInCU: 0x168D6, offset: 0x168D6, size: 0x8, addend: 0x0, symName: __ZNSt3__114pointer_traitsIPNS_4pairIKNS_12basic_stringIcNS_11char_traitsIcEENS_9allocatorIcEEEES7_EEE10pointer_toB8ue170006ERS9_, symObjAddr: 0x7B40, symBinAddr: 0x100009ADC, symSize: 0x14 }
  - { offsetInCU: 0x168F9, offset: 0x168F9, size: 0x8, addend: 0x0, symName: __ZNKSt3__115__hash_iteratorIPNS_11__hash_nodeINS_17__hash_value_typeINS_12basic_stringIcNS_11char_traitsIcEENS_9allocatorIcEEEES8_EEPvEEEptB8ue170006Ev, symObjAddr: 0x7B54, symBinAddr: 0x100009AF0, symSize: 0x30 }
  - { offsetInCU: 0x1691F, offset: 0x1691F, size: 0x8, addend: 0x0, symName: __ZNSt3__114pointer_traitsIPNS_17__hash_value_typeINS_12basic_stringIcNS_11char_traitsIcEENS_9allocatorIcEEEES7_EEE10pointer_toB8ue170006ERS8_, symObjAddr: 0x7B84, symBinAddr: 0x100009B20, symSize: 0x14 }
  - { offsetInCU: 0x16942, offset: 0x16942, size: 0x8, addend: 0x0, symName: __ZNKSt3__110__function12__value_funcIFbNS_12basic_stringIcNS_11char_traitsIcEENS_9allocatorIcEEEEEEclB8ue170006EOS7_, symObjAddr: 0x7B98, symBinAddr: 0x100009B34, symSize: 0x5C }
  - { offsetInCU: 0x1697C, offset: 0x1697C, size: 0x8, addend: 0x0, symName: __ZNSt3__117bad_function_callC1Ev, symObjAddr: 0x7C2C, symBinAddr: 0x100009BC8, symSize: 0x2C }
  - { offsetInCU: 0x169A8, offset: 0x169A8, size: 0x8, addend: 0x0, symName: __ZNSt3__117bad_function_callD1Ev, symObjAddr: 0x7C58, symBinAddr: 0x100009BF4, symSize: 0x2C }
  - { offsetInCU: 0x169D2, offset: 0x169D2, size: 0x8, addend: 0x0, symName: __ZNSt3__117bad_function_callC2Ev, symObjAddr: 0x7C84, symBinAddr: 0x100009C20, symSize: 0x44 }
  - { offsetInCU: 0x169FE, offset: 0x169FE, size: 0x8, addend: 0x0, symName: __ZNSt3__117bad_function_callD0Ev, symObjAddr: 0x7CC8, symBinAddr: 0x100009C64, symSize: 0x30 }
  - { offsetInCU: 0x16A28, offset: 0x16A28, size: 0x8, addend: 0x0, symName: __ZNSt3__117bad_function_callD2Ev, symObjAddr: 0x7CF8, symBinAddr: 0x100009C94, symSize: 0x2C }
  - { offsetInCU: 0x16A52, offset: 0x16A52, size: 0x8, addend: 0x0, symName: __ZNSt3__123__optional_storage_baseINS_12basic_stringIcNS_11char_traitsIcEENS_9allocatorIcEEEELb0EE11__constructB8ue170006IJRS6_EEEvDpOT_, symObjAddr: 0x7D24, symBinAddr: 0x100009CC0, symSize: 0x3C }
  - { offsetInCU: 0x16A92, offset: 0x16A92, size: 0x8, addend: 0x0, symName: __ZNKSt3__110__function12__value_funcIFbNS_12basic_stringIcNS_11char_traitsIcEENS_9allocatorIcEEEES7_EEclB8ue170006EOS7_SA_, symObjAddr: 0x7D60, symBinAddr: 0x100009CFC, symSize: 0x64 }
  - { offsetInCU: 0x16AD6, offset: 0x16AD6, size: 0x8, addend: 0x0, symName: __ZNSt3__124__optional_destruct_baseINS_12basic_stringIcNS_11char_traitsIcEENS_9allocatorIcEEEELb0EE5resetB8ue170006Ev, symObjAddr: 0x7DC4, symBinAddr: 0x100009D60, symSize: 0x44 }
  - { offsetInCU: 0x16B1A, offset: 0x16B1A, size: 0x8, addend: 0x0, symName: __ZNKSt3__113basic_ostreamIcNS_11char_traitsIcEEE6sentrycvbB8ue170006Ev, symObjAddr: 0x7FF4, symBinAddr: 0x100009F90, symSize: 0x1C }
  - { offsetInCU: 0x16B40, offset: 0x16B40, size: 0x8, addend: 0x0, symName: __ZNSt3__119ostreambuf_iteratorIcNS_11char_traitsIcEEEC1B8ue170006ERNS_13basic_ostreamIcS2_EE, symObjAddr: 0x8250, symBinAddr: 0x10000A1EC, symSize: 0x34 }
  - { offsetInCU: 0x16B78, offset: 0x16B78, size: 0x8, addend: 0x0, symName: __ZNKSt3__18ios_base5flagsB8ue170006Ev, symObjAddr: 0x8284, symBinAddr: 0x10000A220, symSize: 0x18 }
  - { offsetInCU: 0x16BA0, offset: 0x16BA0, size: 0x8, addend: 0x0, symName: __ZNKSt3__19basic_iosIcNS_11char_traitsIcEEE4fillB8ue170006Ev, symObjAddr: 0x829C, symBinAddr: 0x10000A238, symSize: 0x64 }
  - { offsetInCU: 0x16BC8, offset: 0x16BC8, size: 0x8, addend: 0x0, symName: __ZNKSt3__119ostreambuf_iteratorIcNS_11char_traitsIcEEE6failedB8ue170006Ev, symObjAddr: 0x8300, symBinAddr: 0x10000A29C, symSize: 0x24 }
  - { offsetInCU: 0x16BEE, offset: 0x16BEE, size: 0x8, addend: 0x0, symName: __ZNSt3__19basic_iosIcNS_11char_traitsIcEEE8setstateB8ue170006Ej, symObjAddr: 0x8324, symBinAddr: 0x10000A2C0, symSize: 0x2C }
  - { offsetInCU: 0x16C23, offset: 0x16C23, size: 0x8, addend: 0x0, symName: __ZNKSt3__18ios_base5widthB8ue170006Ev, symObjAddr: 0x8350, symBinAddr: 0x10000A2EC, symSize: 0x18 }
  - { offsetInCU: 0x16C4B, offset: 0x16C4B, size: 0x8, addend: 0x0, symName: __ZNSt3__115basic_streambufIcNS_11char_traitsIcEEE5sputnB8ue170006EPKcl, symObjAddr: 0x8368, symBinAddr: 0x10000A304, symSize: 0x3C }
  - { offsetInCU: 0x16C8D, offset: 0x16C8D, size: 0x8, addend: 0x0, symName: __ZNSt3__112basic_stringIcNS_11char_traitsIcEENS_9allocatorIcEEEC1B8ue170006Emc, symObjAddr: 0x83A4, symBinAddr: 0x10000A340, symSize: 0x3C }
  - { offsetInCU: 0x16CD5, offset: 0x16CD5, size: 0x8, addend: 0x0, symName: __ZNSt3__112basic_stringIcNS_11char_traitsIcEENS_9allocatorIcEEE4dataB8ue170006Ev, symObjAddr: 0x83E0, symBinAddr: 0x10000A37C, symSize: 0x28 }
  - { offsetInCU: 0x16CFB, offset: 0x16CFB, size: 0x8, addend: 0x0, symName: __ZNSt3__18ios_base5widthB8ue170006El, symObjAddr: 0x8408, symBinAddr: 0x10000A3A4, symSize: 0x2C }
  - { offsetInCU: 0x16D41, offset: 0x16D41, size: 0x8, addend: 0x0, symName: __ZNSt3__112basic_stringIcNS_11char_traitsIcEENS_9allocatorIcEEEC2B8ue170006Emc, symObjAddr: 0x8434, symBinAddr: 0x10000A3D0, symSize: 0x4C }
  - { offsetInCU: 0x16D89, offset: 0x16D89, size: 0x8, addend: 0x0, symName: __ZNSt3__112basic_stringIcNS_11char_traitsIcEENS_9allocatorIcEEE13__get_pointerB8ue170006Ev, symObjAddr: 0x8494, symBinAddr: 0x10000A430, symSize: 0x54 }
  - { offsetInCU: 0x16DAF, offset: 0x16DAF, size: 0x8, addend: 0x0, symName: __ZNSt3__112basic_stringIcNS_11char_traitsIcEENS_9allocatorIcEEE18__get_long_pointerB8ue170006Ev, symObjAddr: 0x84E8, symBinAddr: 0x10000A484, symSize: 0x28 }
  - { offsetInCU: 0x16DD5, offset: 0x16DD5, size: 0x8, addend: 0x0, symName: __ZNSt3__112basic_stringIcNS_11char_traitsIcEENS_9allocatorIcEEE19__get_short_pointerB8ue170006Ev, symObjAddr: 0x8510, symBinAddr: 0x10000A4AC, symSize: 0x28 }
  - { offsetInCU: 0x16DFB, offset: 0x16DFB, size: 0x8, addend: 0x0, symName: __ZNSt3__114pointer_traitsIPcE10pointer_toB8ue170006ERc, symObjAddr: 0x8538, symBinAddr: 0x10000A4D4, symSize: 0x14 }
  - { offsetInCU: 0x16E1E, offset: 0x16E1E, size: 0x8, addend: 0x0, symName: __ZNSt3__119ostreambuf_iteratorIcNS_11char_traitsIcEEEC2B8ue170006ERNS_13basic_ostreamIcS2_EE, symObjAddr: 0x854C, symBinAddr: 0x10000A4E8, symSize: 0x54 }
  - { offsetInCU: 0x16E56, offset: 0x16E56, size: 0x8, addend: 0x0, symName: __ZNKSt3__19basic_iosIcNS_11char_traitsIcEEE5rdbufB8ue170006Ev, symObjAddr: 0x85A0, symBinAddr: 0x10000A53C, symSize: 0x24 }
  - { offsetInCU: 0x16E7E, offset: 0x16E7E, size: 0x8, addend: 0x0, symName: __ZNKSt3__18ios_base5rdbufB8ue170006Ev, symObjAddr: 0x85C4, symBinAddr: 0x10000A560, symSize: 0x18 }
  - { offsetInCU: 0x16EA4, offset: 0x16EA4, size: 0x8, addend: 0x0, symName: __ZNSt3__111char_traitsIcE11eq_int_typeB8ue170006Eii, symObjAddr: 0x85DC, symBinAddr: 0x10000A578, symSize: 0x28 }
  - { offsetInCU: 0x16ED7, offset: 0x16ED7, size: 0x8, addend: 0x0, symName: __ZNSt3__111char_traitsIcE3eofB8ue170006Ev, symObjAddr: 0x8604, symBinAddr: 0x10000A5A0, symSize: 0x8 }
  - { offsetInCU: 0x16EEB, offset: 0x16EEB, size: 0x8, addend: 0x0, symName: __ZNKSt3__19basic_iosIcNS_11char_traitsIcEEE5widenB8ue170006Ec, symObjAddr: 0x860C, symBinAddr: 0x10000A5A8, symSize: 0x84 }
  - { offsetInCU: 0x16F59, offset: 0x16F59, size: 0x8, addend: 0x0, symName: __ZNKSt3__15ctypeIcE5widenB8ue170006Ec, symObjAddr: 0x86BC, symBinAddr: 0x10000A658, symSize: 0x38 }
  - { offsetInCU: 0x16F8E, offset: 0x16F8E, size: 0x8, addend: 0x0, symName: __ZNSt3__18ios_base8setstateB8ue170006Ej, symObjAddr: 0x86F4, symBinAddr: 0x10000A690, symSize: 0x34 }
  - { offsetInCU: 0x7DFF, offset: 0x1EFD0, size: 0x8, addend: 0x0, symName: __ZNSt3__122__libcpp_thread_isnullB8ue170006EPKP17_opaque_pthread_t, symObjAddr: 0xBF0, symBinAddr: 0x10000B274, symSize: 0x30 }
  - { offsetInCU: 0x7E2D, offset: 0x1EFFE, size: 0x8, addend: 0x0, symName: __ZNSt3__122__libcpp_thread_get_idB8ue170006EPKP17_opaque_pthread_t, symObjAddr: 0xC20, symBinAddr: 0x10000B2A4, symSize: 0x18 }
  - { offsetInCU: 0x7E5B, offset: 0x1F02C, size: 0x8, addend: 0x0, symName: __ZNSt3__1neB8ue170006ERKNS_16__deque_iteratorINS_8functionIFvvEEEPS3_RS3_PS4_lLl128EEES9_, symObjAddr: 0x11DC, symBinAddr: 0x10000B860, symSize: 0x34 }
  - { offsetInCU: 0x7E98, offset: 0x1F069, size: 0x8, addend: 0x0, symName: __ZNSt3__1eqB8ue170006ERKNS_16__deque_iteratorINS_8functionIFvvEEEPS3_RS3_PS4_lLl128EEES9_, symObjAddr: 0x1528, symBinAddr: 0x10000BB98, symSize: 0x30 }
  - { offsetInCU: 0x7ED5, offset: 0x1F0A6, size: 0x8, addend: 0x0, symName: __ZNSt3__112__to_addressB8ue170006INS_8functionIFvvEEEEEPT_S5_, symObjAddr: 0x1BCC, symBinAddr: 0x10000C228, symSize: 0x14 }
  - { offsetInCU: 0x7F0A, offset: 0x1F0DB, size: 0x8, addend: 0x0, symName: __ZNSt3__112__to_addressB8ue170006IPNS_8functionIFvvEEEEEPT_S6_, symObjAddr: 0x20C0, symBinAddr: 0x10000C5F4, symSize: 0x14 }
  - { offsetInCU: 0x7F3F, offset: 0x1F110, size: 0x8, addend: 0x0, symName: __ZNSt3__122__make_exception_guardB8ue170006INS_6vectorINS_6threadENS_9allocatorIS2_EEE16__destroy_vectorEEENS_28__exception_guard_exceptionsIT_EES8_, symObjAddr: 0x2398, symBinAddr: 0x10000C804, symSize: 0x40 }
  - { offsetInCU: 0x7F74, offset: 0x1F145, size: 0x8, addend: 0x0, symName: __ZNSt3__119__allocate_at_leastB8ue170006INS_9allocatorINS_6threadEEEEENS_19__allocation_resultINS_16allocator_traitsIT_E7pointerEEERS6_m, symObjAddr: 0x2784, symBinAddr: 0x10000CBF0, symSize: 0x40 }
  - { offsetInCU: 0x81A1, offset: 0x1F372, size: 0x8, addend: 0x0, symName: __ZNSt3__120__throw_length_errorB8ue170006EPKc, symObjAddr: 0x2A28, symBinAddr: 0x10000CDE0, symSize: 0x64 }
  - { offsetInCU: 0x81CB, offset: 0x1F39C, size: 0x8, addend: 0x0, symName: __ZNSt3__112__to_addressB8ue170006INS_6threadEEEPT_S3_, symObjAddr: 0x2D40, symBinAddr: 0x10000D014, symSize: 0x14 }
  - { offsetInCU: 0x85FD, offset: 0x1F7CE, size: 0x8, addend: 0x0, symName: __ZNSt3__122__libcpp_thread_createB8ue170006EPP17_opaque_pthread_tPFPvS3_ES3_, symObjAddr: 0x37A8, symBinAddr: 0x10000DA58, symSize: 0x38 }
  - { offsetInCU: 0x8649, offset: 0x1F81A, size: 0x8, addend: 0x0, symName: __ZNSt3__114__thread_proxyB8ue170006INS_5tupleIJNS_10unique_ptrINS_15__thread_structENS_14default_deleteIS3_EEEEM13DispatchQueueFvvEPS7_EEEEEPvSC_, symObjAddr: 0x37E0, symBinAddr: 0x10000DA90, symSize: 0x90 }
  - { offsetInCU: 0x87AD, offset: 0x1F97E, size: 0x8, addend: 0x0, symName: __ZNSt3__13getB8ue170006ILm0EJNS_10unique_ptrINS_15__thread_structENS_14default_deleteIS2_EEEEM13DispatchQueueFvvEPS6_EEERNS_13tuple_elementIXT_ENS_5tupleIJDpT0_EEEE4typeERSE_, symObjAddr: 0x3EE4, symBinAddr: 0x10000E194, symSize: 0x24 }
  - { offsetInCU: 0x87FA, offset: 0x1F9CB, size: 0x8, addend: 0x0, symName: __ZNSt3__116__thread_executeB8ue170006INS_10unique_ptrINS_15__thread_structENS_14default_deleteIS2_EEEEM13DispatchQueueFvvEJPS6_EJLm2EEEEvRNS_5tupleIJT_T0_DpT1_EEENS_15__tuple_indicesIJXspT2_EEEE, symObjAddr: 0x3F08, symBinAddr: 0x10000E1B8, symSize: 0x3C }
  - { offsetInCU: 0x8857, offset: 0x1FA28, size: 0x8, addend: 0x0, symName: __ZNSt3__116__libcpp_tls_setB8ue170006EmPv, symObjAddr: 0x3F44, symBinAddr: 0x10000E1F4, symSize: 0x2C }
  - { offsetInCU: 0x8894, offset: 0x1FA65, size: 0x8, addend: 0x0, symName: __ZNSt3__18__invokeB8ue170006IM13DispatchQueueFvvEPS1_JEvEEDTcldsdeclsr3stdE7declvalIT0_EEclsr3stdE7declvalIT_EEspclsr3stdE7declvalIT1_EEEEOS6_OS5_DpOS7_, symObjAddr: 0x3F84, symBinAddr: 0x10000E234, symSize: 0x80 }
  - { offsetInCU: 0x88E5, offset: 0x1FAB6, size: 0x8, addend: 0x0, symName: __ZNSt3__13getB8ue170006ILm1EJNS_10unique_ptrINS_15__thread_structENS_14default_deleteIS2_EEEEM13DispatchQueueFvvEPS6_EEERNS_13tuple_elementIXT_ENS_5tupleIJDpT0_EEEE4typeERSE_, symObjAddr: 0x4004, symBinAddr: 0x10000E2B4, symSize: 0x28 }
  - { offsetInCU: 0x8932, offset: 0x1FB03, size: 0x8, addend: 0x0, symName: __ZNSt3__13getB8ue170006ILm2EJNS_10unique_ptrINS_15__thread_structENS_14default_deleteIS2_EEEEM13DispatchQueueFvvEPS6_EEERNS_13tuple_elementIXT_ENS_5tupleIJDpT0_EEEE4typeERSE_, symObjAddr: 0x402C, symBinAddr: 0x10000E2DC, symSize: 0x28 }
  - { offsetInCU: 0x897F, offset: 0x1FB50, size: 0x8, addend: 0x0, symName: __ZNSt3__14swapB8ue170006IPPNS_8functionIFvvEEEEENS_9enable_ifIXaasr21is_move_constructibleIT_EE5valuesr18is_move_assignableIS7_EE5valueEvE4typeERS7_SA_, symObjAddr: 0x4BF4, symBinAddr: 0x10000EEA4, symSize: 0x3C }
  - { offsetInCU: 0x89D0, offset: 0x1FBA1, size: 0x8, addend: 0x0, symName: __ZNSt3__119__allocate_at_leastB8ue170006INS_9allocatorIPNS_8functionIFvvEEEEEEENS_19__allocation_resultINS_16allocator_traitsIT_E7pointerEEERS9_m, symObjAddr: 0x4DBC, symBinAddr: 0x10000F06C, symSize: 0x40 }
  - { offsetInCU: 0x8A13, offset: 0x1FBE4, size: 0x8, addend: 0x0, symName: __ZNSt3__18distanceB8ue170006INS_13move_iteratorIPPNS_8functionIFvvEEEEEEENS_15iterator_traitsIT_E15difference_typeES9_S9_, symObjAddr: 0x5038, symBinAddr: 0x10000F2E8, symSize: 0x3C }
  - { offsetInCU: 0x8A56, offset: 0x1FC27, size: 0x8, addend: 0x0, symName: __ZNSt3__110__distanceB8ue170006INS_13move_iteratorIPPNS_8functionIFvvEEEEEEENS_15iterator_traitsIT_E15difference_typeES9_S9_NS_26random_access_iterator_tagE, symObjAddr: 0x51D4, symBinAddr: 0x10000F484, symSize: 0x30 }
  - { offsetInCU: 0x8AA4, offset: 0x1FC75, size: 0x8, addend: 0x0, symName: __ZNSt3__1miB8ue170006IPPNS_8functionIFvvEEES5_EEDTmicldtfp_4baseEcldtfp0_4baseEERKNS_13move_iteratorIT_EERKNS7_IT0_EE, symObjAddr: 0x5204, symBinAddr: 0x10000F4B4, symSize: 0x48 }
  - { offsetInCU: 0x8F4C, offset: 0x2011D, size: 0x8, addend: 0x0, symName: __ZNSt3__14moveB8ue170006IPPNS_8functionIFvvEEES5_EET0_T_S7_S6_, symObjAddr: 0x684C, symBinAddr: 0x100010AD0, symSize: 0x40 }
  - { offsetInCU: 0x8FA6, offset: 0x20177, size: 0x8, addend: 0x0, symName: __ZNSt3__16__moveB8ue170006INS_17_ClassicAlgPolicyEPPNS_8functionIFvvEEES6_S6_EENS_4pairIT0_T2_EES8_T1_S9_, symObjAddr: 0x68C0, symBinAddr: 0x100010B44, symSize: 0x44 }
  - { offsetInCU: 0x9012, offset: 0x201E3, size: 0x8, addend: 0x0, symName: __ZNSt3__123__dispatch_copy_or_moveB8ue170006INS_17_ClassicAlgPolicyENS_11__move_loopIS1_EENS_14__move_trivialEPPNS_8functionIFvvEEES9_S9_EENS_4pairIT2_T4_EESB_T3_SC_, symObjAddr: 0x6904, symBinAddr: 0x100010B88, symSize: 0x44 }
  - { offsetInCU: 0x9090, offset: 0x20261, size: 0x8, addend: 0x0, symName: __ZNSt3__121__unwrap_and_dispatchB8ue170006INS_10__overloadINS_11__move_loopINS_17_ClassicAlgPolicyEEENS_14__move_trivialEEEPPNS_8functionIFvvEEESB_SB_Li0EEENS_4pairIT0_T2_EESD_T1_SE_, symObjAddr: 0x6948, symBinAddr: 0x100010BCC, symSize: 0xB4 }
  - { offsetInCU: 0x911E, offset: 0x202EF, size: 0x8, addend: 0x0, symName: __ZNSt3__114__unwrap_rangeB8ue170006IPPNS_8functionIFvvEEES5_EENS_4pairIT0_S7_EET_S9_, symObjAddr: 0x69FC, symBinAddr: 0x100010C80, symSize: 0x60 }
  - { offsetInCU: 0x92E2, offset: 0x204B3, size: 0x8, addend: 0x0, symName: __ZNSt3__113__unwrap_iterB8ue170006IPPNS_8functionIFvvEEENS_18__unwrap_iter_implIS5_Lb1EEELi0EEEDTclsrT0_8__unwrapclsr3stdE7declvalIT_EEEES9_, symObjAddr: 0x6AA4, symBinAddr: 0x100010D28, symSize: 0x24 }
  - { offsetInCU: 0x9326, offset: 0x204F7, size: 0x8, addend: 0x0, symName: __ZNSt3__19make_pairB8ue170006IPPNS_8functionIFvvEEES5_EENS_4pairINS_18__unwrap_ref_decayIT_E4typeENS7_IT0_E4typeEEEOS8_OSB_, symObjAddr: 0x6AC8, symBinAddr: 0x100010D4C, symSize: 0x38 }
  - { offsetInCU: 0x9375, offset: 0x20546, size: 0x8, addend: 0x0, symName: __ZNSt3__114__rewrap_rangeB8ue170006IPPNS_8functionIFvvEEES5_EET_S6_T0_, symObjAddr: 0x6B00, symBinAddr: 0x100010D84, symSize: 0x2C }
  - { offsetInCU: 0x93C1, offset: 0x20592, size: 0x8, addend: 0x0, symName: __ZNSt3__113__rewrap_iterB8ue170006IPPNS_8functionIFvvEEES5_NS_18__unwrap_iter_implIS5_Lb1EEEEET_S8_T0_, symObjAddr: 0x6B2C, symBinAddr: 0x100010DB0, symSize: 0x3C }
  - { offsetInCU: 0x9416, offset: 0x205E7, size: 0x8, addend: 0x0, symName: __ZNSt3__119__copy_trivial_implB8ue170006IPNS_8functionIFvvEEES4_EENS_4pairIPT_PT0_EES7_S7_S9_, symObjAddr: 0x6B68, symBinAddr: 0x100010DEC, symSize: 0x80 }
  - { offsetInCU: 0x947E, offset: 0x2064F, size: 0x8, addend: 0x0, symName: __ZNSt3__119__constexpr_memmoveB8ue170006IPNS_8functionIFvvEEES4_Li0EEEPT_S6_PT0_NS_15__element_countE, symObjAddr: 0x6BE8, symBinAddr: 0x100010E6C, symSize: 0x64 }
  - { offsetInCU: 0x94EC, offset: 0x206BD, size: 0x8, addend: 0x0, symName: __ZNSt3__19make_pairB8ue170006IRPPNS_8functionIFvvEEES5_EENS_4pairINS_18__unwrap_ref_decayIT_E4typeENS8_IT0_E4typeEEEOS9_OSC_, symObjAddr: 0x6C4C, symBinAddr: 0x100010ED0, symSize: 0x38 }
  - { offsetInCU: 0x958E, offset: 0x2075F, size: 0x8, addend: 0x0, symName: __ZNSt3__113move_backwardB8ue170006IPPNS_8functionIFvvEEES5_EET0_T_S7_S6_, symObjAddr: 0x6E90, symBinAddr: 0x100011114, symSize: 0x40 }
  - { offsetInCU: 0x95E8, offset: 0x207B9, size: 0x8, addend: 0x0, symName: __ZNSt3__115__move_backwardB8ue170006INS_17_ClassicAlgPolicyEPPNS_8functionIFvvEEES6_S6_EENS_4pairIT0_T2_EES8_T1_S9_, symObjAddr: 0x6ED0, symBinAddr: 0x100011154, symSize: 0x44 }
  - { offsetInCU: 0x9654, offset: 0x20825, size: 0x8, addend: 0x0, symName: __ZNSt3__123__dispatch_copy_or_moveB8ue170006INS_17_ClassicAlgPolicyENS_20__move_backward_loopIS1_EENS_23__move_backward_trivialEPPNS_8functionIFvvEEES9_S9_EENS_4pairIT2_T4_EESB_T3_SC_, symObjAddr: 0x6F14, symBinAddr: 0x100011198, symSize: 0x44 }
  - { offsetInCU: 0x96D2, offset: 0x208A3, size: 0x8, addend: 0x0, symName: __ZNSt3__121__unwrap_and_dispatchB8ue170006INS_10__overloadINS_20__move_backward_loopINS_17_ClassicAlgPolicyEEENS_23__move_backward_trivialEEEPPNS_8functionIFvvEEESB_SB_Li0EEENS_4pairIT0_T2_EESD_T1_SE_, symObjAddr: 0x6F58, symBinAddr: 0x1000111DC, symSize: 0xB4 }
  - { offsetInCU: 0x97A6, offset: 0x20977, size: 0x8, addend: 0x0, symName: __ZNSt3__128__copy_backward_trivial_implB8ue170006IPNS_8functionIFvvEEES4_EENS_4pairIPT_PT0_EES7_S7_S9_, symObjAddr: 0x7054, symBinAddr: 0x1000112D8, symSize: 0x90 }
  - { offsetInCU: 0x980E, offset: 0x209DF, size: 0x8, addend: 0x0, symName: __ZNSt3__19make_pairB8ue170006IRPPNS_8functionIFvvEEES6_EENS_4pairINS_18__unwrap_ref_decayIT_E4typeENS8_IT0_E4typeEEEOS9_OSC_, symObjAddr: 0x70E4, symBinAddr: 0x100011368, symSize: 0x38 }
  - { offsetInCU: 0xC4BC, offset: 0x2368D, size: 0x8, addend: 0x0, symName: __ZN13DispatchQueueC2ENSt3__112basic_stringIcNS0_11char_traitsIcEENS0_9allocatorIcEEEEm, symObjAddr: 0x0, symBinAddr: 0x10000A6C4, symSize: 0x184 }
  - { offsetInCU: 0xC519, offset: 0x236EA, size: 0x8, addend: 0x0, symName: __ZNSt3__15mutexC1B8ue170006Ev, symObjAddr: 0x1B8, symBinAddr: 0x10000A848, symSize: 0x2C }
  - { offsetInCU: 0xC543, offset: 0x23714, size: 0x8, addend: 0x0, symName: __ZNSt3__16vectorINS_6threadENS_9allocatorIS1_EEEC1Em, symObjAddr: 0x1E4, symBinAddr: 0x10000A874, symSize: 0x34 }
  - { offsetInCU: 0xC57E, offset: 0x2374F, size: 0x8, addend: 0x0, symName: __ZNSt3__15queueINS_8functionIFvvEEENS_5dequeIS3_NS_9allocatorIS3_EEEEEC1B8ue170006Ev, symObjAddr: 0x218, symBinAddr: 0x10000A8A8, symSize: 0x2C }
  - { offsetInCU: 0xC5A8, offset: 0x23779, size: 0x8, addend: 0x0, symName: __ZNSt3__118condition_variableC1B8ue170006Ev, symObjAddr: 0x244, symBinAddr: 0x10000A8D4, symSize: 0x2C }
  - { offsetInCU: 0xC5D2, offset: 0x237A3, size: 0x8, addend: 0x0, symName: __ZNKSt3__16vectorINS_6threadENS_9allocatorIS1_EEE4sizeB8ue170006Ev, symObjAddr: 0x270, symBinAddr: 0x10000A900, symSize: 0x28 }
  - { offsetInCU: 0xC5F8, offset: 0x237C9, size: 0x8, addend: 0x0, symName: __ZN13DispatchQueue21dispatchThreadHandlerEv, symObjAddr: 0x298, symBinAddr: 0x10000A928, symSize: 0x174 }
  - { offsetInCU: 0xC674, offset: 0x23845, size: 0x8, addend: 0x0, symName: __ZNSt3__16threadC1IM13DispatchQueueFvvEJPS2_EvEEOT_DpOT0_, symObjAddr: 0x40C, symBinAddr: 0x10000AA9C, symSize: 0x3C }
  - { offsetInCU: 0xC6CF, offset: 0x238A0, size: 0x8, addend: 0x0, symName: __ZNSt3__16vectorINS_6threadENS_9allocatorIS1_EEEixB8ue170006Em, symObjAddr: 0x448, symBinAddr: 0x10000AAD8, symSize: 0x24 }
  - { offsetInCU: 0xC706, offset: 0x238D7, size: 0x8, addend: 0x0, symName: __ZNSt3__16threadaSB8ue170006EOS0_, symObjAddr: 0x46C, symBinAddr: 0x10000AAFC, symSize: 0x60 }
  - { offsetInCU: 0xC73A, offset: 0x2390B, size: 0x8, addend: 0x0, symName: __ZNSt3__15queueINS_8functionIFvvEEENS_5dequeIS3_NS_9allocatorIS3_EEEEED1Ev, symObjAddr: 0x4CC, symBinAddr: 0x10000AB5C, symSize: 0x2C }
  - { offsetInCU: 0xC767, offset: 0x23938, size: 0x8, addend: 0x0, symName: __ZNSt3__16vectorINS_6threadENS_9allocatorIS1_EEED1B8ue170006Ev, symObjAddr: 0x4F8, symBinAddr: 0x10000AB88, symSize: 0x2C }
  - { offsetInCU: 0xC791, offset: 0x23962, size: 0x8, addend: 0x0, symName: __ZN13DispatchQueueC1ENSt3__112basic_stringIcNS0_11char_traitsIcEENS0_9allocatorIcEEEEm, symObjAddr: 0x524, symBinAddr: 0x10000ABB4, symSize: 0x3C }
  - { offsetInCU: 0xC7DA, offset: 0x239AB, size: 0x8, addend: 0x0, symName: __ZN13DispatchQueueD2Ev, symObjAddr: 0x560, symBinAddr: 0x10000ABF0, symSize: 0x124 }
  - { offsetInCU: 0xC836, offset: 0x23A07, size: 0x8, addend: 0x0, symName: __ZNSt3__111unique_lockINS_5mutexEEC1B8ue170006ERS1_, symObjAddr: 0x684, symBinAddr: 0x10000AD14, symSize: 0x34 }
  - { offsetInCU: 0xC86E, offset: 0x23A3F, size: 0x8, addend: 0x0, symName: __ZNSt3__111unique_lockINS_5mutexEE6unlockEv, symObjAddr: 0x6C4, symBinAddr: 0x10000AD48, symSize: 0x54 }
  - { offsetInCU: 0xC895, offset: 0x23A66, size: 0x8, addend: 0x0, symName: __ZNKSt3__16thread8joinableB8ue170006Ev, symObjAddr: 0x718, symBinAddr: 0x10000AD9C, symSize: 0x3C }
  - { offsetInCU: 0xC8BB, offset: 0x23A8C, size: 0x8, addend: 0x0, symName: __ZNSt3__111unique_lockINS_5mutexEED1B8ue170006Ev, symObjAddr: 0x754, symBinAddr: 0x10000ADD8, symSize: 0x2C }
  - { offsetInCU: 0xC8E5, offset: 0x23AB6, size: 0x8, addend: 0x0, symName: __ZN13DispatchQueueD1Ev, symObjAddr: 0x780, symBinAddr: 0x10000AE04, symSize: 0x2C }
  - { offsetInCU: 0xC911, offset: 0x23AE2, size: 0x8, addend: 0x0, symName: __ZN13DispatchQueue13removePendingEv, symObjAddr: 0x7AC, symBinAddr: 0x10000AE30, symSize: 0x60 }
  - { offsetInCU: 0xC947, offset: 0x23B18, size: 0x8, addend: 0x0, symName: __ZNSt3__15queueINS_8functionIFvvEEENS_5dequeIS3_NS_9allocatorIS3_EEEEEaSB8ue170006EOS8_, symObjAddr: 0x80C, symBinAddr: 0x10000AE90, symSize: 0x34 }
  - { offsetInCU: 0xC97C, offset: 0x23B4D, size: 0x8, addend: 0x0, symName: __ZN13DispatchQueue8dispatchERKNSt3__18functionIFvvEEE, symObjAddr: 0x840, symBinAddr: 0x10000AEC4, symSize: 0x88 }
  - { offsetInCU: 0xC9C0, offset: 0x23B91, size: 0x8, addend: 0x0, symName: __ZNSt3__15queueINS_8functionIFvvEEENS_5dequeIS3_NS_9allocatorIS3_EEEEE4pushB8ue170006ERKS3_, symObjAddr: 0x8C8, symBinAddr: 0x10000AF4C, symSize: 0x2C }
  - { offsetInCU: 0xC9F5, offset: 0x23BC6, size: 0x8, addend: 0x0, symName: __ZN13DispatchQueue8dispatchEONSt3__18functionIFvvEEE, symObjAddr: 0x8F4, symBinAddr: 0x10000AF78, symSize: 0x88 }
  - { offsetInCU: 0xCA39, offset: 0x23C0A, size: 0x8, addend: 0x0, symName: __ZNSt3__15queueINS_8functionIFvvEEENS_5dequeIS3_NS_9allocatorIS3_EEEEE4pushB8ue170006EOS3_, symObjAddr: 0x97C, symBinAddr: 0x10000B000, symSize: 0x2C }
  - { offsetInCU: 0xCA6E, offset: 0x23C3F, size: 0x8, addend: 0x0, symName: '__ZNSt3__118condition_variable4waitIZN13DispatchQueue21dispatchThreadHandlerEvE3$_0EEvRNS_11unique_lockINS_5mutexEEET_', symObjAddr: 0x9A8, symBinAddr: 0x10000B02C, symSize: 0x50 }
  - { offsetInCU: 0xCAB9, offset: 0x23C8A, size: 0x8, addend: 0x0, symName: __ZNKSt3__15queueINS_8functionIFvvEEENS_5dequeIS3_NS_9allocatorIS3_EEEEE4sizeB8ue170006Ev, symObjAddr: 0x9F8, symBinAddr: 0x10000B07C, symSize: 0x24 }
  - { offsetInCU: 0xCADF, offset: 0x23CB0, size: 0x8, addend: 0x0, symName: __ZNSt3__15queueINS_8functionIFvvEEENS_5dequeIS3_NS_9allocatorIS3_EEEEE5frontB8ue170006Ev, symObjAddr: 0xA1C, symBinAddr: 0x10000B0A0, symSize: 0x24 }
  - { offsetInCU: 0xCB05, offset: 0x23CD6, size: 0x8, addend: 0x0, symName: __ZNSt3__18functionIFvvEEC1EOS2_, symObjAddr: 0xA40, symBinAddr: 0x10000B0C4, symSize: 0x34 }
  - { offsetInCU: 0xCB40, offset: 0x23D11, size: 0x8, addend: 0x0, symName: __ZNSt3__15queueINS_8functionIFvvEEENS_5dequeIS3_NS_9allocatorIS3_EEEEE3popB8ue170006Ev, symObjAddr: 0xA74, symBinAddr: 0x10000B0F8, symSize: 0x24 }
  - { offsetInCU: 0xCB66, offset: 0x23D37, size: 0x8, addend: 0x0, symName: __ZNKSt3__18functionIFvvEEclEv, symObjAddr: 0xA98, symBinAddr: 0x10000B11C, symSize: 0x24 }
  - { offsetInCU: 0xCB8E, offset: 0x23D5F, size: 0x8, addend: 0x0, symName: __ZNSt3__111unique_lockINS_5mutexEE4lockEv, symObjAddr: 0xABC, symBinAddr: 0x10000B140, symSize: 0x80 }
  - { offsetInCU: 0xCBB5, offset: 0x23D86, size: 0x8, addend: 0x0, symName: __ZNSt3__18functionIFvvEED1Ev, symObjAddr: 0xB3C, symBinAddr: 0x10000B1C0, symSize: 0x2C }
  - { offsetInCU: 0xCBE1, offset: 0x23DB2, size: 0x8, addend: 0x0, symName: __ZNSt3__15mutexC2B8ue170006Ev, symObjAddr: 0xB68, symBinAddr: 0x10000B1EC, symSize: 0x44 }
  - { offsetInCU: 0xCC0B, offset: 0x23DDC, size: 0x8, addend: 0x0, symName: __ZNSt3__118condition_variableC2B8ue170006Ev, symObjAddr: 0xBAC, symBinAddr: 0x10000B230, symSize: 0x44 }
  - { offsetInCU: 0xCC35, offset: 0x23E06, size: 0x8, addend: 0x0, symName: __ZNSt3__15queueINS_8functionIFvvEEENS_5dequeIS3_NS_9allocatorIS3_EEEEED2Ev, symObjAddr: 0xC38, symBinAddr: 0x10000B2BC, symSize: 0x2C }
  - { offsetInCU: 0xCC62, offset: 0x23E33, size: 0x8, addend: 0x0, symName: __ZNSt3__15dequeINS_8functionIFvvEEENS_9allocatorIS3_EEED1B8ue170006Ev, symObjAddr: 0xC64, symBinAddr: 0x10000B2E8, symSize: 0x2C }
  - { offsetInCU: 0xCC8C, offset: 0x23E5D, size: 0x8, addend: 0x0, symName: __ZNSt3__15dequeINS_8functionIFvvEEENS_9allocatorIS3_EEED2B8ue170006Ev, symObjAddr: 0xC90, symBinAddr: 0x10000B314, symSize: 0xA4 }
  - { offsetInCU: 0xCCE2, offset: 0x23EB3, size: 0x8, addend: 0x0, symName: __ZNSt3__15dequeINS_8functionIFvvEEENS_9allocatorIS3_EEE5clearEv, symObjAddr: 0xD34, symBinAddr: 0x10000B3B8, symSize: 0x194 }
  - { offsetInCU: 0xCD3D, offset: 0x23F0E, size: 0x8, addend: 0x0, symName: __ZNKSt3__15dequeINS_8functionIFvvEEENS_9allocatorIS3_EEE17__annotate_deleteB8ue170006Ev, symObjAddr: 0xEC8, symBinAddr: 0x10000B54C, symSize: 0xE8 }
  - { offsetInCU: 0xCD80, offset: 0x23F51, size: 0x8, addend: 0x0, symName: __ZNSt3__114__split_bufferIPNS_8functionIFvvEEENS_9allocatorIS4_EEE5beginB8ue170006Ev, symObjAddr: 0xFB0, symBinAddr: 0x10000B634, symSize: 0x18 }
  - { offsetInCU: 0xCDA6, offset: 0x23F77, size: 0x8, addend: 0x0, symName: __ZNSt3__114__split_bufferIPNS_8functionIFvvEEENS_9allocatorIS4_EEE3endB8ue170006Ev, symObjAddr: 0xFC8, symBinAddr: 0x10000B64C, symSize: 0x18 }
  - { offsetInCU: 0xCDCC, offset: 0x23F9D, size: 0x8, addend: 0x0, symName: __ZNSt3__116allocator_traitsINS_9allocatorINS_8functionIFvvEEEEEE10deallocateB8ue170006ERS5_PS4_m, symObjAddr: 0xFE0, symBinAddr: 0x10000B664, symSize: 0x34 }
  - { offsetInCU: 0xCE0E, offset: 0x23FDF, size: 0x8, addend: 0x0, symName: __ZNSt3__15dequeINS_8functionIFvvEEENS_9allocatorIS3_EEE7__allocB8ue170006Ev, symObjAddr: 0x1014, symBinAddr: 0x10000B698, symSize: 0x28 }
  - { offsetInCU: 0xCE34, offset: 0x24005, size: 0x8, addend: 0x0, symName: __ZNSt3__114__split_bufferIPNS_8functionIFvvEEENS_9allocatorIS4_EEED1Ev, symObjAddr: 0x103C, symBinAddr: 0x10000B6C0, symSize: 0x2C }
  - { offsetInCU: 0xCE60, offset: 0x24031, size: 0x8, addend: 0x0, symName: __ZNSt3__15dequeINS_8functionIFvvEEENS_9allocatorIS3_EEE5beginB8ue170006Ev, symObjAddr: 0x1068, symBinAddr: 0x10000B6EC, symSize: 0xB8 }
  - { offsetInCU: 0xCE95, offset: 0x24066, size: 0x8, addend: 0x0, symName: __ZNSt3__15dequeINS_8functionIFvvEEENS_9allocatorIS3_EEE3endB8ue170006Ev, symObjAddr: 0x1120, symBinAddr: 0x10000B7A4, symSize: 0xBC }
  - { offsetInCU: 0xCED9, offset: 0x240AA, size: 0x8, addend: 0x0, symName: __ZNSt3__116allocator_traitsINS_9allocatorINS_8functionIFvvEEEEEE7destroyB8ue170006IS4_vEEvRS5_PT_, symObjAddr: 0x1210, symBinAddr: 0x10000B894, symSize: 0x2C }
  - { offsetInCU: 0xCF16, offset: 0x240E7, size: 0x8, addend: 0x0, symName: __ZNKSt3__116__deque_iteratorINS_8functionIFvvEEEPS3_RS3_PS4_lLl128EEdeB8ue170006Ev, symObjAddr: 0x123C, symBinAddr: 0x10000B8C0, symSize: 0x18 }
  - { offsetInCU: 0xCF3C, offset: 0x2410D, size: 0x8, addend: 0x0, symName: __ZNSt3__116__deque_iteratorINS_8functionIFvvEEEPS3_RS3_PS4_lLl128EEppB8ue170006Ev, symObjAddr: 0x1254, symBinAddr: 0x10000B8D8, symSize: 0x70 }
  - { offsetInCU: 0xCF62, offset: 0x24133, size: 0x8, addend: 0x0, symName: __ZNSt3__15dequeINS_8functionIFvvEEENS_9allocatorIS3_EEE6__sizeB8ue170006Ev, symObjAddr: 0x12C4, symBinAddr: 0x10000B948, symSize: 0x28 }
  - { offsetInCU: 0xCF88, offset: 0x24159, size: 0x8, addend: 0x0, symName: __ZNKSt3__114__split_bufferIPNS_8functionIFvvEEENS_9allocatorIS4_EEE4sizeB8ue170006Ev, symObjAddr: 0x12EC, symBinAddr: 0x10000B970, symSize: 0x28 }
  - { offsetInCU: 0xCFAE, offset: 0x2417F, size: 0x8, addend: 0x0, symName: __ZNSt3__114__split_bufferIPNS_8functionIFvvEEENS_9allocatorIS4_EEE5frontB8ue170006Ev, symObjAddr: 0x1314, symBinAddr: 0x10000B998, symSize: 0x18 }
  - { offsetInCU: 0xCFD4, offset: 0x241A5, size: 0x8, addend: 0x0, symName: __ZNSt3__114__split_bufferIPNS_8functionIFvvEEENS_9allocatorIS4_EEE9pop_frontB8ue170006Ev, symObjAddr: 0x132C, symBinAddr: 0x10000B9B0, symSize: 0x2C }
  - { offsetInCU: 0xCFFA, offset: 0x241CB, size: 0x8, addend: 0x0, symName: __ZNKSt3__15dequeINS_8functionIFvvEEENS_9allocatorIS3_EEE14__annotate_newB8ue170006Em, symObjAddr: 0x1358, symBinAddr: 0x10000B9DC, symSize: 0xB8 }
  - { offsetInCU: 0xD02F, offset: 0x24200, size: 0x8, addend: 0x0, symName: __ZNKSt3__114__split_bufferIPNS_8functionIFvvEEENS_9allocatorIS4_EEE5emptyB8ue170006Ev, symObjAddr: 0x1410, symBinAddr: 0x10000BA94, symSize: 0x28 }
  - { offsetInCU: 0xD055, offset: 0x24226, size: 0x8, addend: 0x0, symName: __ZNSt3__116__deque_iteratorINS_8functionIFvvEEEPS3_RS3_PS4_lLl128EEC1B8ue170006ES6_S4_, symObjAddr: 0x1438, symBinAddr: 0x10000BABC, symSize: 0x3C }
  - { offsetInCU: 0xD09D, offset: 0x2426E, size: 0x8, addend: 0x0, symName: __ZNSt3__116__deque_iteratorINS_8functionIFvvEEEPS3_RS3_PS4_lLl128EEC2B8ue170006ES6_S4_, symObjAddr: 0x1474, symBinAddr: 0x10000BAF8, symSize: 0x2C }
  - { offsetInCU: 0xD0E5, offset: 0x242B6, size: 0x8, addend: 0x0, symName: __ZNKSt3__15dequeINS_8functionIFvvEEENS_9allocatorIS3_EEE4sizeB8ue170006Ev, symObjAddr: 0x14A0, symBinAddr: 0x10000BB24, symSize: 0x28 }
  - { offsetInCU: 0xD10B, offset: 0x242DC, size: 0x8, addend: 0x0, symName: __ZNKSt3__15dequeINS_8functionIFvvEEENS_9allocatorIS3_EEE6__sizeB8ue170006Ev, symObjAddr: 0x14C8, symBinAddr: 0x10000BB4C, symSize: 0x28 }
  - { offsetInCU: 0xD131, offset: 0x24302, size: 0x8, addend: 0x0, symName: __ZNKSt3__117__compressed_pairImNS_9allocatorINS_8functionIFvvEEEEEE5firstB8ue170006Ev, symObjAddr: 0x14F0, symBinAddr: 0x10000BB74, symSize: 0x24 }
  - { offsetInCU: 0xD157, offset: 0x24328, size: 0x8, addend: 0x0, symName: __ZNSt3__19allocatorINS_8functionIFvvEEEE7destroyB8ue170006EPS3_, symObjAddr: 0x1558, symBinAddr: 0x10000BBC8, symSize: 0x28 }
  - { offsetInCU: 0xD18B, offset: 0x2435C, size: 0x8, addend: 0x0, symName: __ZNSt3__117__compressed_pairImNS_9allocatorINS_8functionIFvvEEEEEE5firstB8ue170006Ev, symObjAddr: 0x1580, symBinAddr: 0x10000BBF0, symSize: 0x24 }
  - { offsetInCU: 0xD1B1, offset: 0x24382, size: 0x8, addend: 0x0, symName: __ZNSt3__114__split_bufferIPNS_8functionIFvvEEENS_9allocatorIS4_EEE19__destruct_at_beginB8ue170006EPS4_, symObjAddr: 0x15B8, symBinAddr: 0x10000BC14, symSize: 0x2C }
  - { offsetInCU: 0xD1E5, offset: 0x243B6, size: 0x8, addend: 0x0, symName: __ZNSt3__114__split_bufferIPNS_8functionIFvvEEENS_9allocatorIS4_EEE19__destruct_at_beginEPS4_NS_17integral_constantIbLb1EEE, symObjAddr: 0x15E4, symBinAddr: 0x10000BC40, symSize: 0x20 }
  - { offsetInCU: 0xD226, offset: 0x243F7, size: 0x8, addend: 0x0, symName: __ZNKSt3__15dequeINS_8functionIFvvEEENS_9allocatorIS3_EEE18__annotate_from_toB8ue170006EmmNS6_22__asan_annotation_typeENS6_23__asan_annotation_placeE, symObjAddr: 0x1604, symBinAddr: 0x10000BC60, symSize: 0x580 }
  - { offsetInCU: 0xD3E2, offset: 0x245B3, size: 0x8, addend: 0x0, symName: __ZNKSt3__114__split_bufferIPNS_8functionIFvvEEENS_9allocatorIS4_EEE5beginB8ue170006Ev, symObjAddr: 0x1B84, symBinAddr: 0x10000C1E0, symSize: 0x18 }
  - { offsetInCU: 0xD408, offset: 0x245D9, size: 0x8, addend: 0x0, symName: __ZNKSt3__15dequeINS_8functionIFvvEEENS_9allocatorIS3_EEE5emptyB8ue170006Ev, symObjAddr: 0x1B9C, symBinAddr: 0x10000C1F8, symSize: 0x30 }
  - { offsetInCU: 0xD42E, offset: 0x245FF, size: 0x8, addend: 0x0, symName: __ZNKSt3__15dequeINS_8functionIFvvEEENS_9allocatorIS3_EEE44__annotate_double_ended_contiguous_containerB8ue170006EPKvS8_S8_S8_S8_S8_, symObjAddr: 0x1BE0, symBinAddr: 0x10000C23C, symSize: 0x28 }
  - { offsetInCU: 0xD49C, offset: 0x2466D, size: 0x8, addend: 0x0, symName: __ZNKSt3__15dequeINS_8functionIFvvEEENS_9allocatorIS3_EEE22__annotate_whole_blockB8ue170006EmNS6_22__asan_annotation_typeE, symObjAddr: 0x1C08, symBinAddr: 0x10000C264, symSize: 0xAC }
  - { offsetInCU: 0xD50D, offset: 0x246DE, size: 0x8, addend: 0x0, symName: __ZNKSt3__15dequeINS_8functionIFvvEEENS_9allocatorIS3_EEE23__annotate_poison_blockB8ue170006EPKvS8_, symObjAddr: 0x1CB4, symBinAddr: 0x10000C310, symSize: 0x44 }
  - { offsetInCU: 0xD551, offset: 0x24722, size: 0x8, addend: 0x0, symName: __ZNSt3__19allocatorINS_8functionIFvvEEEE10deallocateB8ue170006EPS3_m, symObjAddr: 0x1CF8, symBinAddr: 0x10000C354, symSize: 0x40 }
  - { offsetInCU: 0xD593, offset: 0x24764, size: 0x8, addend: 0x0, symName: __ZNSt3__117__compressed_pairImNS_9allocatorINS_8functionIFvvEEEEEE6secondB8ue170006Ev, symObjAddr: 0x1E60, symBinAddr: 0x10000C394, symSize: 0x24 }
  - { offsetInCU: 0xD5B9, offset: 0x2478A, size: 0x8, addend: 0x0, symName: __ZNSt3__122__compressed_pair_elemINS_9allocatorINS_8functionIFvvEEEEELi1ELb1EE5__getB8ue170006Ev, symObjAddr: 0x1E84, symBinAddr: 0x10000C3B8, symSize: 0x14 }
  - { offsetInCU: 0xD5DF, offset: 0x247B0, size: 0x8, addend: 0x0, symName: __ZNSt3__114__split_bufferIPNS_8functionIFvvEEENS_9allocatorIS4_EEED2Ev, symObjAddr: 0x1E98, symBinAddr: 0x10000C3CC, symSize: 0x8C }
  - { offsetInCU: 0xD60B, offset: 0x247DC, size: 0x8, addend: 0x0, symName: __ZNSt3__114__split_bufferIPNS_8functionIFvvEEENS_9allocatorIS4_EEE5clearB8ue170006Ev, symObjAddr: 0x1F24, symBinAddr: 0x10000C458, symSize: 0x28 }
  - { offsetInCU: 0xD631, offset: 0x24802, size: 0x8, addend: 0x0, symName: __ZNSt3__116allocator_traitsINS_9allocatorIPNS_8functionIFvvEEEEEE10deallocateB8ue170006ERS6_PS5_m, symObjAddr: 0x1F4C, symBinAddr: 0x10000C480, symSize: 0x34 }
  - { offsetInCU: 0xD673, offset: 0x24844, size: 0x8, addend: 0x0, symName: __ZNSt3__114__split_bufferIPNS_8functionIFvvEEENS_9allocatorIS4_EEE7__allocB8ue170006Ev, symObjAddr: 0x1F80, symBinAddr: 0x10000C4B4, symSize: 0x28 }
  - { offsetInCU: 0xD699, offset: 0x2486A, size: 0x8, addend: 0x0, symName: __ZNKSt3__114__split_bufferIPNS_8functionIFvvEEENS_9allocatorIS4_EEE8capacityB8ue170006Ev, symObjAddr: 0x1FA8, symBinAddr: 0x10000C4DC, symSize: 0x40 }
  - { offsetInCU: 0xD6BF, offset: 0x24890, size: 0x8, addend: 0x0, symName: __ZNSt3__114__split_bufferIPNS_8functionIFvvEEENS_9allocatorIS4_EEE17__destruct_at_endB8ue170006EPS4_, symObjAddr: 0x1FE8, symBinAddr: 0x10000C51C, symSize: 0x2C }
  - { offsetInCU: 0xD6F3, offset: 0x248C4, size: 0x8, addend: 0x0, symName: __ZNSt3__114__split_bufferIPNS_8functionIFvvEEENS_9allocatorIS4_EEE17__destruct_at_endB8ue170006EPS4_NS_17integral_constantIbLb0EEE, symObjAddr: 0x2014, symBinAddr: 0x10000C548, symSize: 0x80 }
  - { offsetInCU: 0xD734, offset: 0x24905, size: 0x8, addend: 0x0, symName: __ZNSt3__116allocator_traitsINS_9allocatorIPNS_8functionIFvvEEEEEE7destroyB8ue170006IS5_vEEvRS6_PT_, symObjAddr: 0x2094, symBinAddr: 0x10000C5C8, symSize: 0x2C }
  - { offsetInCU: 0xD771, offset: 0x24942, size: 0x8, addend: 0x0, symName: __ZNSt3__19allocatorIPNS_8functionIFvvEEEE7destroyB8ue170006EPS4_, symObjAddr: 0x20D4, symBinAddr: 0x10000C608, symSize: 0x14 }
  - { offsetInCU: 0xD7A5, offset: 0x24976, size: 0x8, addend: 0x0, symName: __ZNSt3__19allocatorIPNS_8functionIFvvEEEE10deallocateB8ue170006EPS4_m, symObjAddr: 0x20E8, symBinAddr: 0x10000C61C, symSize: 0x40 }
  - { offsetInCU: 0xD7E7, offset: 0x249B8, size: 0x8, addend: 0x0, symName: __ZNSt3__117__compressed_pairIPPNS_8functionIFvvEEENS_9allocatorIS4_EEE6secondB8ue170006Ev, symObjAddr: 0x2128, symBinAddr: 0x10000C65C, symSize: 0x24 }
  - { offsetInCU: 0xD80D, offset: 0x249DE, size: 0x8, addend: 0x0, symName: __ZNSt3__122__compressed_pair_elemINS_9allocatorIPNS_8functionIFvvEEEEELi1ELb1EE5__getB8ue170006Ev, symObjAddr: 0x214C, symBinAddr: 0x10000C680, symSize: 0x14 }
  - { offsetInCU: 0xD833, offset: 0x24A04, size: 0x8, addend: 0x0, symName: __ZNKSt3__114__split_bufferIPNS_8functionIFvvEEENS_9allocatorIS4_EEE9__end_capB8ue170006Ev, symObjAddr: 0x2160, symBinAddr: 0x10000C694, symSize: 0x28 }
  - { offsetInCU: 0xD859, offset: 0x24A2A, size: 0x8, addend: 0x0, symName: __ZNKSt3__117__compressed_pairIPPNS_8functionIFvvEEENS_9allocatorIS4_EEE5firstB8ue170006Ev, symObjAddr: 0x2188, symBinAddr: 0x10000C6BC, symSize: 0x24 }
  - { offsetInCU: 0xD87F, offset: 0x24A50, size: 0x8, addend: 0x0, symName: __ZNKSt3__122__compressed_pair_elemIPPNS_8functionIFvvEEELi0ELb0EE5__getB8ue170006Ev, symObjAddr: 0x21AC, symBinAddr: 0x10000C6E0, symSize: 0x14 }
  - { offsetInCU: 0xD8A5, offset: 0x24A76, size: 0x8, addend: 0x0, symName: __ZNSt3__16vectorINS_6threadENS_9allocatorIS1_EEEC2Em, symObjAddr: 0x2288, symBinAddr: 0x10000C6F4, symSize: 0xD4 }
  - { offsetInCU: 0xD901, offset: 0x24AD2, size: 0x8, addend: 0x0, symName: __ZNSt3__117__compressed_pairIPNS_6threadENS_9allocatorIS1_EEEC1B8ue170006IDnNS_18__default_init_tagEEEOT_OT0_, symObjAddr: 0x235C, symBinAddr: 0x10000C7C8, symSize: 0x3C }
  - { offsetInCU: 0xD959, offset: 0x24B2A, size: 0x8, addend: 0x0, symName: __ZNSt3__16vectorINS_6threadENS_9allocatorIS1_EEE16__destroy_vectorC1B8ue170006ERS4_, symObjAddr: 0x23D8, symBinAddr: 0x10000C844, symSize: 0x34 }
  - { offsetInCU: 0xD992, offset: 0x24B63, size: 0x8, addend: 0x0, symName: __ZNSt3__16vectorINS_6threadENS_9allocatorIS1_EEE11__vallocateB8ue170006Em, symObjAddr: 0x240C, symBinAddr: 0x10000C878, symSize: 0xAC }
  - { offsetInCU: 0xD9D6, offset: 0x24BA7, size: 0x8, addend: 0x0, symName: __ZNSt3__16vectorINS_6threadENS_9allocatorIS1_EEE18__construct_at_endEm, symObjAddr: 0x24B8, symBinAddr: 0x10000C924, symSize: 0xC8 }
  - { offsetInCU: 0xDA48, offset: 0x24C19, size: 0x8, addend: 0x0, symName: __ZNSt3__128__exception_guard_exceptionsINS_6vectorINS_6threadENS_9allocatorIS2_EEE16__destroy_vectorEE10__completeB8ue170006Ev, symObjAddr: 0x2580, symBinAddr: 0x10000C9EC, symSize: 0x1C }
  - { offsetInCU: 0xDA6E, offset: 0x24C3F, size: 0x8, addend: 0x0, symName: __ZNSt3__128__exception_guard_exceptionsINS_6vectorINS_6threadENS_9allocatorIS2_EEE16__destroy_vectorEED1B8ue170006Ev, symObjAddr: 0x259C, symBinAddr: 0x10000CA08, symSize: 0x2C }
  - { offsetInCU: 0xDA98, offset: 0x24C69, size: 0x8, addend: 0x0, symName: __ZNSt3__117__compressed_pairIPNS_6threadENS_9allocatorIS1_EEEC2B8ue170006IDnNS_18__default_init_tagEEEOT_OT0_, symObjAddr: 0x25C8, symBinAddr: 0x10000CA34, symSize: 0x40 }
  - { offsetInCU: 0xDAF0, offset: 0x24CC1, size: 0x8, addend: 0x0, symName: __ZNSt3__122__compressed_pair_elemIPNS_6threadELi0ELb0EEC2B8ue170006IDnvEEOT_, symObjAddr: 0x2608, symBinAddr: 0x10000CA74, symSize: 0x1C }
  - { offsetInCU: 0xDB32, offset: 0x24D03, size: 0x8, addend: 0x0, symName: __ZNSt3__122__compressed_pair_elemINS_9allocatorINS_6threadEEELi1ELb1EEC2B8ue170006ENS_18__default_init_tagE, symObjAddr: 0x2624, symBinAddr: 0x10000CA90, symSize: 0x2C }
  - { offsetInCU: 0xDB67, offset: 0x24D38, size: 0x8, addend: 0x0, symName: __ZNSt3__19allocatorINS_6threadEEC2B8ue170006Ev, symObjAddr: 0x2650, symBinAddr: 0x10000CABC, symSize: 0x2C }
  - { offsetInCU: 0xDB91, offset: 0x24D62, size: 0x8, addend: 0x0, symName: __ZNSt3__116__non_trivial_ifILb1ENS_9allocatorINS_6threadEEEEC2B8ue170006Ev, symObjAddr: 0x267C, symBinAddr: 0x10000CAE8, symSize: 0x14 }
  - { offsetInCU: 0xDBBB, offset: 0x24D8C, size: 0x8, addend: 0x0, symName: __ZNSt3__128__exception_guard_exceptionsINS_6vectorINS_6threadENS_9allocatorIS2_EEE16__destroy_vectorEEC1B8ue170006ES6_, symObjAddr: 0x2690, symBinAddr: 0x10000CAFC, symSize: 0x34 }
  - { offsetInCU: 0xDBF3, offset: 0x24DC4, size: 0x8, addend: 0x0, symName: __ZNSt3__128__exception_guard_exceptionsINS_6vectorINS_6threadENS_9allocatorIS2_EEE16__destroy_vectorEEC2B8ue170006ES6_, symObjAddr: 0x26C4, symBinAddr: 0x10000CB30, symSize: 0x24 }
  - { offsetInCU: 0xDC2B, offset: 0x24DFC, size: 0x8, addend: 0x0, symName: __ZNSt3__16vectorINS_6threadENS_9allocatorIS1_EEE16__destroy_vectorC2B8ue170006ERS4_, symObjAddr: 0x26E8, symBinAddr: 0x10000CB54, symSize: 0x20 }
  - { offsetInCU: 0xDC64, offset: 0x24E35, size: 0x8, addend: 0x0, symName: __ZNKSt3__16vectorINS_6threadENS_9allocatorIS1_EEE8max_sizeEv, symObjAddr: 0x2708, symBinAddr: 0x10000CB74, symSize: 0x60 }
  - { offsetInCU: 0xDC8C, offset: 0x24E5D, size: 0x8, addend: 0x0, symName: __ZNKSt3__16vectorINS_6threadENS_9allocatorIS1_EEE20__throw_length_errorB8ue170006Ev, symObjAddr: 0x2768, symBinAddr: 0x10000CBD4, symSize: 0x1C }
  - { offsetInCU: 0xDCB2, offset: 0x24E83, size: 0x8, addend: 0x0, symName: __ZNSt3__16vectorINS_6threadENS_9allocatorIS1_EEE7__allocB8ue170006Ev, symObjAddr: 0x27C4, symBinAddr: 0x10000CC30, symSize: 0x28 }
  - { offsetInCU: 0xDCD8, offset: 0x24EA9, size: 0x8, addend: 0x0, symName: __ZNSt3__16vectorINS_6threadENS_9allocatorIS1_EEE9__end_capB8ue170006Ev, symObjAddr: 0x27EC, symBinAddr: 0x10000CC58, symSize: 0x28 }
  - { offsetInCU: 0xDCFE, offset: 0x24ECF, size: 0x8, addend: 0x0, symName: __ZNKSt3__16vectorINS_6threadENS_9allocatorIS1_EEE14__annotate_newB8ue170006Em, symObjAddr: 0x2814, symBinAddr: 0x10000CC80, symSize: 0xAC }
  - { offsetInCU: 0xDD3D, offset: 0x24F0E, size: 0x8, addend: 0x0, symName: __ZNSt3__116allocator_traitsINS_9allocatorINS_6threadEEEE8max_sizeB8ue170006IS3_vEEmRKS3_, symObjAddr: 0x28EC, symBinAddr: 0x10000CD2C, symSize: 0x24 }
  - { offsetInCU: 0xDD6B, offset: 0x24F3C, size: 0x8, addend: 0x0, symName: __ZNKSt3__16vectorINS_6threadENS_9allocatorIS1_EEE7__allocB8ue170006Ev, symObjAddr: 0x2910, symBinAddr: 0x10000CD50, symSize: 0x28 }
  - { offsetInCU: 0xDD91, offset: 0x24F62, size: 0x8, addend: 0x0, symName: __ZNSt3__114numeric_limitsIlE3maxB8ue170006Ev, symObjAddr: 0x2938, symBinAddr: 0x10000CD78, symSize: 0x14 }
  - { offsetInCU: 0xDDA5, offset: 0x24F76, size: 0x8, addend: 0x0, symName: __ZNKSt3__19allocatorINS_6threadEE8max_sizeB8ue170006Ev, symObjAddr: 0x29D4, symBinAddr: 0x10000CD8C, symSize: 0x14 }
  - { offsetInCU: 0xDDCB, offset: 0x24F9C, size: 0x8, addend: 0x0, symName: __ZNKSt3__117__compressed_pairIPNS_6threadENS_9allocatorIS1_EEE6secondB8ue170006Ev, symObjAddr: 0x29E8, symBinAddr: 0x10000CDA0, symSize: 0x24 }
  - { offsetInCU: 0xDDF1, offset: 0x24FC2, size: 0x8, addend: 0x0, symName: __ZNKSt3__122__compressed_pair_elemINS_9allocatorINS_6threadEEELi1ELb1EE5__getB8ue170006Ev, symObjAddr: 0x2A0C, symBinAddr: 0x10000CDC4, symSize: 0x14 }
  - { offsetInCU: 0xDE17, offset: 0x24FE8, size: 0x8, addend: 0x0, symName: __ZNSt3__123__libcpp_numeric_limitsIlLb1EE3maxB8ue170006Ev, symObjAddr: 0x2A20, symBinAddr: 0x10000CDD8, symSize: 0x8 }
  - { offsetInCU: 0xDE2B, offset: 0x24FFC, size: 0x8, addend: 0x0, symName: __ZNSt12length_errorC1B8ue170006EPKc, symObjAddr: 0x2A8C, symBinAddr: 0x10000CE44, symSize: 0x34 }
  - { offsetInCU: 0xDE63, offset: 0x25034, size: 0x8, addend: 0x0, symName: __ZNSt12length_errorC2B8ue170006EPKc, symObjAddr: 0x2AC0, symBinAddr: 0x10000CE78, symSize: 0x4C }
  - { offsetInCU: 0xDE9B, offset: 0x2506C, size: 0x8, addend: 0x0, symName: __ZNSt3__19allocatorINS_6threadEE8allocateB8ue170006Em, symObjAddr: 0x2B0C, symBinAddr: 0x10000CEC4, symSize: 0x58 }
  - { offsetInCU: 0xDECF, offset: 0x250A0, size: 0x8, addend: 0x0, symName: __ZNSt3__117__compressed_pairIPNS_6threadENS_9allocatorIS1_EEE6secondB8ue170006Ev, symObjAddr: 0x2C48, symBinAddr: 0x10000CF1C, symSize: 0x24 }
  - { offsetInCU: 0xDEF5, offset: 0x250C6, size: 0x8, addend: 0x0, symName: __ZNSt3__122__compressed_pair_elemINS_9allocatorINS_6threadEEELi1ELb1EE5__getB8ue170006Ev, symObjAddr: 0x2C6C, symBinAddr: 0x10000CF40, symSize: 0x14 }
  - { offsetInCU: 0xDF1B, offset: 0x250EC, size: 0x8, addend: 0x0, symName: __ZNSt3__117__compressed_pairIPNS_6threadENS_9allocatorIS1_EEE5firstB8ue170006Ev, symObjAddr: 0x2C80, symBinAddr: 0x10000CF54, symSize: 0x24 }
  - { offsetInCU: 0xDF41, offset: 0x25112, size: 0x8, addend: 0x0, symName: __ZNSt3__122__compressed_pair_elemIPNS_6threadELi0ELb0EE5__getB8ue170006Ev, symObjAddr: 0x2CA4, symBinAddr: 0x10000CF78, symSize: 0x14 }
  - { offsetInCU: 0xDF67, offset: 0x25138, size: 0x8, addend: 0x0, symName: __ZNKSt3__16vectorINS_6threadENS_9allocatorIS1_EEE31__annotate_contiguous_containerB8ue170006EPKvS6_S6_S6_, symObjAddr: 0x2CB8, symBinAddr: 0x10000CF8C, symSize: 0x20 }
  - { offsetInCU: 0xDFBD, offset: 0x2518E, size: 0x8, addend: 0x0, symName: __ZNKSt3__16vectorINS_6threadENS_9allocatorIS1_EEE4dataB8ue170006Ev, symObjAddr: 0x2CD8, symBinAddr: 0x10000CFAC, symSize: 0x28 }
  - { offsetInCU: 0xDFE3, offset: 0x251B4, size: 0x8, addend: 0x0, symName: __ZNKSt3__16vectorINS_6threadENS_9allocatorIS1_EEE8capacityB8ue170006Ev, symObjAddr: 0x2D00, symBinAddr: 0x10000CFD4, symSize: 0x40 }
  - { offsetInCU: 0xE009, offset: 0x251DA, size: 0x8, addend: 0x0, symName: __ZNKSt3__16vectorINS_6threadENS_9allocatorIS1_EEE9__end_capB8ue170006Ev, symObjAddr: 0x2D54, symBinAddr: 0x10000D028, symSize: 0x28 }
  - { offsetInCU: 0xE02F, offset: 0x25200, size: 0x8, addend: 0x0, symName: __ZNKSt3__117__compressed_pairIPNS_6threadENS_9allocatorIS1_EEE5firstB8ue170006Ev, symObjAddr: 0x2D7C, symBinAddr: 0x10000D050, symSize: 0x24 }
  - { offsetInCU: 0xE055, offset: 0x25226, size: 0x8, addend: 0x0, symName: __ZNKSt3__122__compressed_pair_elemIPNS_6threadELi0ELb0EE5__getB8ue170006Ev, symObjAddr: 0x2DA0, symBinAddr: 0x10000D074, symSize: 0x14 }
  - { offsetInCU: 0xE094, offset: 0x25265, size: 0x8, addend: 0x0, symName: __ZNSt3__16vectorINS_6threadENS_9allocatorIS1_EEE21_ConstructTransactionC1B8ue170006ERS4_m, symObjAddr: 0x2DB4, symBinAddr: 0x10000D088, symSize: 0x3C }
  - { offsetInCU: 0xE0DC, offset: 0x252AD, size: 0x8, addend: 0x0, symName: __ZNSt3__116allocator_traitsINS_9allocatorINS_6threadEEEE9constructB8ue170006IS2_JEvEEvRS3_PT_DpOT0_, symObjAddr: 0x2DF0, symBinAddr: 0x10000D0C4, symSize: 0x2C }
  - { offsetInCU: 0xE11E, offset: 0x252EF, size: 0x8, addend: 0x0, symName: __ZNSt3__16vectorINS_6threadENS_9allocatorIS1_EEE21_ConstructTransactionD1B8ue170006Ev, symObjAddr: 0x2E1C, symBinAddr: 0x10000D0F0, symSize: 0x2C }
  - { offsetInCU: 0xE148, offset: 0x25319, size: 0x8, addend: 0x0, symName: __ZNSt3__16vectorINS_6threadENS_9allocatorIS1_EEE21_ConstructTransactionC2B8ue170006ERS4_m, symObjAddr: 0x2E48, symBinAddr: 0x10000D11C, symSize: 0x44 }
  - { offsetInCU: 0xE190, offset: 0x25361, size: 0x8, addend: 0x0, symName: __ZNSt3__19allocatorINS_6threadEE9constructB8ue170006IS1_JEEEvPT_DpOT0_, symObjAddr: 0x2E8C, symBinAddr: 0x10000D160, symSize: 0x28 }
  - { offsetInCU: 0xE1D2, offset: 0x253A3, size: 0x8, addend: 0x0, symName: __ZNSt3__16threadC1B8ue170006Ev, symObjAddr: 0x2EB4, symBinAddr: 0x10000D188, symSize: 0x2C }
  - { offsetInCU: 0xE1FC, offset: 0x253CD, size: 0x8, addend: 0x0, symName: __ZNSt3__16threadC2B8ue170006Ev, symObjAddr: 0x2EE0, symBinAddr: 0x10000D1B4, symSize: 0x18 }
  - { offsetInCU: 0xE226, offset: 0x253F7, size: 0x8, addend: 0x0, symName: __ZNSt3__16vectorINS_6threadENS_9allocatorIS1_EEE21_ConstructTransactionD2B8ue170006Ev, symObjAddr: 0x2EF8, symBinAddr: 0x10000D1CC, symSize: 0x20 }
  - { offsetInCU: 0xE250, offset: 0x25421, size: 0x8, addend: 0x0, symName: __ZNSt3__128__exception_guard_exceptionsINS_6vectorINS_6threadENS_9allocatorIS2_EEE16__destroy_vectorEED2B8ue170006Ev, symObjAddr: 0x2F18, symBinAddr: 0x10000D1EC, symSize: 0x50 }
  - { offsetInCU: 0xE27A, offset: 0x2544B, size: 0x8, addend: 0x0, symName: __ZNSt3__16vectorINS_6threadENS_9allocatorIS1_EEE16__destroy_vectorclB8ue170006Ev, symObjAddr: 0x2F68, symBinAddr: 0x10000D23C, symSize: 0x90 }
  - { offsetInCU: 0xE2A0, offset: 0x25471, size: 0x8, addend: 0x0, symName: __ZNSt3__16vectorINS_6threadENS_9allocatorIS1_EEE7__clearB8ue170006Ev, symObjAddr: 0x2FF8, symBinAddr: 0x10000D2CC, symSize: 0x28 }
  - { offsetInCU: 0xE2C6, offset: 0x25497, size: 0x8, addend: 0x0, symName: __ZNKSt3__16vectorINS_6threadENS_9allocatorIS1_EEE17__annotate_deleteB8ue170006Ev, symObjAddr: 0x3020, symBinAddr: 0x10000D2F4, symSize: 0xB8 }
  - { offsetInCU: 0xE2EC, offset: 0x254BD, size: 0x8, addend: 0x0, symName: __ZNSt3__116allocator_traitsINS_9allocatorINS_6threadEEEE10deallocateB8ue170006ERS3_PS2_m, symObjAddr: 0x30D8, symBinAddr: 0x10000D3AC, symSize: 0x34 }
  - { offsetInCU: 0xE32E, offset: 0x254FF, size: 0x8, addend: 0x0, symName: __ZNSt3__16vectorINS_6threadENS_9allocatorIS1_EEE22__base_destruct_at_endB8ue170006EPS1_, symObjAddr: 0x310C, symBinAddr: 0x10000D3E0, symSize: 0x8C }
  - { offsetInCU: 0xE372, offset: 0x25543, size: 0x8, addend: 0x0, symName: __ZNSt3__116allocator_traitsINS_9allocatorINS_6threadEEEE7destroyB8ue170006IS2_vEEvRS3_PT_, symObjAddr: 0x3198, symBinAddr: 0x10000D46C, symSize: 0x2C }
  - { offsetInCU: 0xE3AF, offset: 0x25580, size: 0x8, addend: 0x0, symName: __ZNSt3__19allocatorINS_6threadEE7destroyB8ue170006EPS1_, symObjAddr: 0x31C4, symBinAddr: 0x10000D498, symSize: 0x28 }
  - { offsetInCU: 0xE3E3, offset: 0x255B4, size: 0x8, addend: 0x0, symName: __ZNSt3__19allocatorINS_6threadEE10deallocateB8ue170006EPS1_m, symObjAddr: 0x31EC, symBinAddr: 0x10000D4C0, symSize: 0x40 }
  - { offsetInCU: 0xE425, offset: 0x255F6, size: 0x8, addend: 0x0, symName: __ZNSt3__15queueINS_8functionIFvvEEENS_5dequeIS3_NS_9allocatorIS3_EEEEEC2B8ue170006Ev, symObjAddr: 0x322C, symBinAddr: 0x10000D500, symSize: 0x2C }
  - { offsetInCU: 0xE44F, offset: 0x25620, size: 0x8, addend: 0x0, symName: __ZNSt3__15dequeINS_8functionIFvvEEENS_9allocatorIS3_EEEC1B8ue170006Ev, symObjAddr: 0x3258, symBinAddr: 0x10000D52C, symSize: 0x2C }
  - { offsetInCU: 0xE479, offset: 0x2564A, size: 0x8, addend: 0x0, symName: __ZNSt3__15dequeINS_8functionIFvvEEENS_9allocatorIS3_EEEC2B8ue170006Ev, symObjAddr: 0x3284, symBinAddr: 0x10000D558, symSize: 0x5C }
  - { offsetInCU: 0xE4A3, offset: 0x25674, size: 0x8, addend: 0x0, symName: __ZNSt3__114__split_bufferIPNS_8functionIFvvEEENS_9allocatorIS4_EEEC1B8ue170006Ev, symObjAddr: 0x32E0, symBinAddr: 0x10000D5B4, symSize: 0x2C }
  - { offsetInCU: 0xE4D3, offset: 0x256A4, size: 0x8, addend: 0x0, symName: __ZNSt3__117__compressed_pairImNS_9allocatorINS_8functionIFvvEEEEEEC1B8ue170006IiNS_18__default_init_tagEEEOT_OT0_, symObjAddr: 0x330C, symBinAddr: 0x10000D5E0, symSize: 0x3C }
  - { offsetInCU: 0xE52B, offset: 0x256FC, size: 0x8, addend: 0x0, symName: __ZNSt3__114__split_bufferIPNS_8functionIFvvEEENS_9allocatorIS4_EEEC2B8ue170006Ev, symObjAddr: 0x3348, symBinAddr: 0x10000D61C, symSize: 0x50 }
  - { offsetInCU: 0xE555, offset: 0x25726, size: 0x8, addend: 0x0, symName: __ZNSt3__117__compressed_pairIPPNS_8functionIFvvEEENS_9allocatorIS4_EEEC1B8ue170006IDnNS_18__default_init_tagEEEOT_OT0_, symObjAddr: 0x3398, symBinAddr: 0x10000D66C, symSize: 0x3C }
  - { offsetInCU: 0xE5AD, offset: 0x2577E, size: 0x8, addend: 0x0, symName: __ZNSt3__117__compressed_pairIPPNS_8functionIFvvEEENS_9allocatorIS4_EEEC2B8ue170006IDnNS_18__default_init_tagEEEOT_OT0_, symObjAddr: 0x33D4, symBinAddr: 0x10000D6A8, symSize: 0x40 }
  - { offsetInCU: 0xE605, offset: 0x257D6, size: 0x8, addend: 0x0, symName: __ZNSt3__122__compressed_pair_elemIPPNS_8functionIFvvEEELi0ELb0EEC2B8ue170006IDnvEEOT_, symObjAddr: 0x3414, symBinAddr: 0x10000D6E8, symSize: 0x1C }
  - { offsetInCU: 0xE647, offset: 0x25818, size: 0x8, addend: 0x0, symName: __ZNSt3__122__compressed_pair_elemINS_9allocatorIPNS_8functionIFvvEEEEELi1ELb1EEC2B8ue170006ENS_18__default_init_tagE, symObjAddr: 0x3430, symBinAddr: 0x10000D704, symSize: 0x2C }
  - { offsetInCU: 0xE67C, offset: 0x2584D, size: 0x8, addend: 0x0, symName: __ZNSt3__19allocatorIPNS_8functionIFvvEEEEC2B8ue170006Ev, symObjAddr: 0x345C, symBinAddr: 0x10000D730, symSize: 0x2C }
  - { offsetInCU: 0xE6A6, offset: 0x25877, size: 0x8, addend: 0x0, symName: __ZNSt3__116__non_trivial_ifILb1ENS_9allocatorIPNS_8functionIFvvEEEEEEC2B8ue170006Ev, symObjAddr: 0x3488, symBinAddr: 0x10000D75C, symSize: 0x14 }
  - { offsetInCU: 0xE6D0, offset: 0x258A1, size: 0x8, addend: 0x0, symName: __ZNSt3__117__compressed_pairImNS_9allocatorINS_8functionIFvvEEEEEEC2B8ue170006IiNS_18__default_init_tagEEEOT_OT0_, symObjAddr: 0x349C, symBinAddr: 0x10000D770, symSize: 0x40 }
  - { offsetInCU: 0xE728, offset: 0x258F9, size: 0x8, addend: 0x0, symName: __ZNSt3__122__compressed_pair_elemINS_9allocatorINS_8functionIFvvEEEEELi1ELb1EEC2B8ue170006ENS_18__default_init_tagE, symObjAddr: 0x3500, symBinAddr: 0x10000D7B0, symSize: 0x2C }
  - { offsetInCU: 0xE75D, offset: 0x2592E, size: 0x8, addend: 0x0, symName: __ZNSt3__19allocatorINS_8functionIFvvEEEEC2B8ue170006Ev, symObjAddr: 0x352C, symBinAddr: 0x10000D7DC, symSize: 0x2C }
  - { offsetInCU: 0xE787, offset: 0x25958, size: 0x8, addend: 0x0, symName: __ZNSt3__116__non_trivial_ifILb1ENS_9allocatorINS_8functionIFvvEEEEEEC2B8ue170006Ev, symObjAddr: 0x3558, symBinAddr: 0x10000D808, symSize: 0x14 }
  - { offsetInCU: 0xE7B1, offset: 0x25982, size: 0x8, addend: 0x0, symName: __ZNSt3__16vectorINS_6threadENS_9allocatorIS1_EEED2B8ue170006Ev, symObjAddr: 0x356C, symBinAddr: 0x10000D81C, symSize: 0x40 }
  - { offsetInCU: 0xE7DB, offset: 0x259AC, size: 0x8, addend: 0x0, symName: __ZNSt3__16threadC2IM13DispatchQueueFvvEJPS2_EvEEOT_DpOT0_, symObjAddr: 0x35AC, symBinAddr: 0x10000D85C, symSize: 0x150 }
  - { offsetInCU: 0xE866, offset: 0x25A37, size: 0x8, addend: 0x0, symName: __ZNSt3__110unique_ptrINS_15__thread_structENS_14default_deleteIS1_EEEC1B8ue170006ILb1EvEEPS1_, symObjAddr: 0x36FC, symBinAddr: 0x10000D9AC, symSize: 0x34 }
  - { offsetInCU: 0xE8A9, offset: 0x25A7A, size: 0x8, addend: 0x0, symName: __ZNSt3__15tupleIJNS_10unique_ptrINS_15__thread_structENS_14default_deleteIS2_EEEEM13DispatchQueueFvvEPS6_EEC1B8ue170006IJS5_S8_S9_ELi0EEEDpOT_, symObjAddr: 0x3730, symBinAddr: 0x10000D9E0, symSize: 0x44 }
  - { offsetInCU: 0xE9AD, offset: 0x25B7E, size: 0x8, addend: 0x0, symName: __ZNSt3__110unique_ptrINS_5tupleIJNS0_INS_15__thread_structENS_14default_deleteIS2_EEEEM13DispatchQueueFvvEPS6_EEENS3_ISA_EEEC1B8ue170006ILb1EvEEPSA_, symObjAddr: 0x3774, symBinAddr: 0x10000DA24, symSize: 0x34 }
  - { offsetInCU: 0xE9F0, offset: 0x25BC1, size: 0x8, addend: 0x0, symName: __ZNKSt3__110unique_ptrINS_5tupleIJNS0_INS_15__thread_structENS_14default_deleteIS2_EEEEM13DispatchQueueFvvEPS6_EEENS3_ISA_EEE3getB8ue170006Ev, symObjAddr: 0x3870, symBinAddr: 0x10000DB20, symSize: 0x28 }
  - { offsetInCU: 0xEA16, offset: 0x25BE7, size: 0x8, addend: 0x0, symName: __ZNSt3__110unique_ptrINS_5tupleIJNS0_INS_15__thread_structENS_14default_deleteIS2_EEEEM13DispatchQueueFvvEPS6_EEENS3_ISA_EEE7releaseB8ue170006Ev, symObjAddr: 0x3898, symBinAddr: 0x10000DB48, symSize: 0x44 }
  - { offsetInCU: 0xEA4B, offset: 0x25C1C, size: 0x8, addend: 0x0, symName: __ZNSt3__110unique_ptrINS_5tupleIJNS0_INS_15__thread_structENS_14default_deleteIS2_EEEEM13DispatchQueueFvvEPS6_EEENS3_ISA_EEED1B8ue170006Ev, symObjAddr: 0x38DC, symBinAddr: 0x10000DB8C, symSize: 0x2C }
  - { offsetInCU: 0xEA75, offset: 0x25C46, size: 0x8, addend: 0x0, symName: __ZNSt3__110unique_ptrINS_15__thread_structENS_14default_deleteIS1_EEED1B8ue170006Ev, symObjAddr: 0x3908, symBinAddr: 0x10000DBB8, symSize: 0x2C }
  - { offsetInCU: 0xEA9F, offset: 0x25C70, size: 0x8, addend: 0x0, symName: __ZNSt3__110unique_ptrINS_15__thread_structENS_14default_deleteIS1_EEEC2B8ue170006ILb1EvEEPS1_, symObjAddr: 0x3934, symBinAddr: 0x10000DBE4, symSize: 0x44 }
  - { offsetInCU: 0xEAE8, offset: 0x25CB9, size: 0x8, addend: 0x0, symName: __ZNSt3__117__compressed_pairIPNS_15__thread_structENS_14default_deleteIS1_EEEC1B8ue170006IRS2_NS_16__value_init_tagEEEOT_OT0_, symObjAddr: 0x3978, symBinAddr: 0x10000DC28, symSize: 0x3C }
  - { offsetInCU: 0xEB40, offset: 0x25D11, size: 0x8, addend: 0x0, symName: __ZNSt3__117__compressed_pairIPNS_15__thread_structENS_14default_deleteIS1_EEEC2B8ue170006IRS2_NS_16__value_init_tagEEEOT_OT0_, symObjAddr: 0x39B4, symBinAddr: 0x10000DC64, symSize: 0x40 }
  - { offsetInCU: 0xEB98, offset: 0x25D69, size: 0x8, addend: 0x0, symName: __ZNSt3__122__compressed_pair_elemIPNS_15__thread_structELi0ELb0EEC2B8ue170006IRS2_vEEOT_, symObjAddr: 0x39F4, symBinAddr: 0x10000DCA4, symSize: 0x24 }
  - { offsetInCU: 0xEBDA, offset: 0x25DAB, size: 0x8, addend: 0x0, symName: __ZNSt3__122__compressed_pair_elemINS_14default_deleteINS_15__thread_structEEELi1ELb1EEC2B8ue170006ENS_16__value_init_tagE, symObjAddr: 0x3A18, symBinAddr: 0x10000DCC8, symSize: 0x14 }
  - { offsetInCU: 0xEC0F, offset: 0x25DE0, size: 0x8, addend: 0x0, symName: __ZNSt3__15tupleIJNS_10unique_ptrINS_15__thread_structENS_14default_deleteIS2_EEEEM13DispatchQueueFvvEPS6_EEC2B8ue170006IJS5_S8_S9_ELi0EEEDpOT_, symObjAddr: 0x3A2C, symBinAddr: 0x10000DCDC, symSize: 0x44 }
  - { offsetInCU: 0xEC81, offset: 0x25E52, size: 0x8, addend: 0x0, symName: __ZNSt3__112__tuple_implINS_15__tuple_indicesIJLm0ELm1ELm2EEEEJNS_10unique_ptrINS_15__thread_structENS_14default_deleteIS4_EEEEM13DispatchQueueFvvEPS8_EEC1B8ue170006IJLm0ELm1ELm2EEJS7_SA_SB_EJEJEJS7_SA_SB_EEENS1_IJXspT_EEEENS_13__tuple_typesIJDpT0_EEENS1_IJXspT1_EEEENSF_IJDpT2_EEEDpOT3_, symObjAddr: 0x3A70, symBinAddr: 0x10000DD20, symSize: 0x44 }
  - { offsetInCU: 0xED54, offset: 0x25F25, size: 0x8, addend: 0x0, symName: __ZNSt3__112__tuple_implINS_15__tuple_indicesIJLm0ELm1ELm2EEEEJNS_10unique_ptrINS_15__thread_structENS_14default_deleteIS4_EEEEM13DispatchQueueFvvEPS8_EEC2B8ue170006IJLm0ELm1ELm2EEJS7_SA_SB_EJEJEJS7_SA_SB_EEENS1_IJXspT_EEEENS_13__tuple_typesIJDpT0_EEENS1_IJXspT1_EEEENSF_IJDpT2_EEEDpOT3_, symObjAddr: 0x3AB4, symBinAddr: 0x10000DD64, symSize: 0x5C }
  - { offsetInCU: 0xEE27, offset: 0x25FF8, size: 0x8, addend: 0x0, symName: __ZNSt3__112__tuple_leafILm0ENS_10unique_ptrINS_15__thread_structENS_14default_deleteIS2_EEEELb0EEC2B8ue170006IS5_vEEOT_, symObjAddr: 0x3B10, symBinAddr: 0x10000DDC0, symSize: 0x34 }
  - { offsetInCU: 0xEE6A, offset: 0x2603B, size: 0x8, addend: 0x0, symName: __ZNSt3__112__tuple_leafILm1EM13DispatchQueueFvvELb0EEC2B8ue170006IS3_vEEOT_, symObjAddr: 0x3B44, symBinAddr: 0x10000DDF4, symSize: 0x2C }
  - { offsetInCU: 0xEEAD, offset: 0x2607E, size: 0x8, addend: 0x0, symName: __ZNSt3__112__tuple_leafILm2EP13DispatchQueueLb0EEC2B8ue170006IS2_vEEOT_, symObjAddr: 0x3B70, symBinAddr: 0x10000DE20, symSize: 0x24 }
  - { offsetInCU: 0xEEF0, offset: 0x260C1, size: 0x8, addend: 0x0, symName: __ZNSt3__110unique_ptrINS_15__thread_structENS_14default_deleteIS1_EEEC1B8ue170006EOS4_, symObjAddr: 0x3B94, symBinAddr: 0x10000DE44, symSize: 0x34 }
  - { offsetInCU: 0xEF28, offset: 0x260F9, size: 0x8, addend: 0x0, symName: __ZNSt3__110unique_ptrINS_15__thread_structENS_14default_deleteIS1_EEEC2B8ue170006EOS4_, symObjAddr: 0x3BC8, symBinAddr: 0x10000DE78, symSize: 0x60 }
  - { offsetInCU: 0xEF60, offset: 0x26131, size: 0x8, addend: 0x0, symName: __ZNSt3__110unique_ptrINS_15__thread_structENS_14default_deleteIS1_EEE7releaseB8ue170006Ev, symObjAddr: 0x3C28, symBinAddr: 0x10000DED8, symSize: 0x44 }
  - { offsetInCU: 0xEF95, offset: 0x26166, size: 0x8, addend: 0x0, symName: __ZNSt3__110unique_ptrINS_15__thread_structENS_14default_deleteIS1_EEE11get_deleterB8ue170006Ev, symObjAddr: 0x3C6C, symBinAddr: 0x10000DF1C, symSize: 0x24 }
  - { offsetInCU: 0xEFC7, offset: 0x26198, size: 0x8, addend: 0x0, symName: __ZNSt3__117__compressed_pairIPNS_15__thread_structENS_14default_deleteIS1_EEEC1B8ue170006IS2_S4_EEOT_OT0_, symObjAddr: 0x3C90, symBinAddr: 0x10000DF40, symSize: 0x3C }
  - { offsetInCU: 0xF01F, offset: 0x261F0, size: 0x8, addend: 0x0, symName: __ZNSt3__117__compressed_pairIPNS_15__thread_structENS_14default_deleteIS1_EEE5firstB8ue170006Ev, symObjAddr: 0x3CCC, symBinAddr: 0x10000DF7C, symSize: 0x24 }
  - { offsetInCU: 0xF045, offset: 0x26216, size: 0x8, addend: 0x0, symName: __ZNSt3__122__compressed_pair_elemIPNS_15__thread_structELi0ELb0EE5__getB8ue170006Ev, symObjAddr: 0x3CF0, symBinAddr: 0x10000DFA0, symSize: 0x14 }
  - { offsetInCU: 0xF06B, offset: 0x2623C, size: 0x8, addend: 0x0, symName: __ZNSt3__117__compressed_pairIPNS_15__thread_structENS_14default_deleteIS1_EEE6secondB8ue170006Ev, symObjAddr: 0x3D04, symBinAddr: 0x10000DFB4, symSize: 0x24 }
  - { offsetInCU: 0xF091, offset: 0x26262, size: 0x8, addend: 0x0, symName: __ZNSt3__122__compressed_pair_elemINS_14default_deleteINS_15__thread_structEEELi1ELb1EE5__getB8ue170006Ev, symObjAddr: 0x3D28, symBinAddr: 0x10000DFD8, symSize: 0x14 }
  - { offsetInCU: 0xF0B7, offset: 0x26288, size: 0x8, addend: 0x0, symName: __ZNSt3__117__compressed_pairIPNS_15__thread_structENS_14default_deleteIS1_EEEC2B8ue170006IS2_S4_EEOT_OT0_, symObjAddr: 0x3D3C, symBinAddr: 0x10000DFEC, symSize: 0x44 }
  - { offsetInCU: 0xF10F, offset: 0x262E0, size: 0x8, addend: 0x0, symName: __ZNSt3__122__compressed_pair_elemIPNS_15__thread_structELi0ELb0EEC2B8ue170006IS2_vEEOT_, symObjAddr: 0x3D80, symBinAddr: 0x10000E030, symSize: 0x24 }
  - { offsetInCU: 0xF151, offset: 0x26322, size: 0x8, addend: 0x0, symName: __ZNSt3__122__compressed_pair_elemINS_14default_deleteINS_15__thread_structEEELi1ELb1EEC2B8ue170006IS3_vEEOT_, symObjAddr: 0x3DA4, symBinAddr: 0x10000E054, symSize: 0x18 }
  - { offsetInCU: 0xF193, offset: 0x26364, size: 0x8, addend: 0x0, symName: __ZNSt3__110unique_ptrINS_5tupleIJNS0_INS_15__thread_structENS_14default_deleteIS2_EEEEM13DispatchQueueFvvEPS6_EEENS3_ISA_EEEC2B8ue170006ILb1EvEEPSA_, symObjAddr: 0x3DBC, symBinAddr: 0x10000E06C, symSize: 0x44 }
  - { offsetInCU: 0xF1D6, offset: 0x263A7, size: 0x8, addend: 0x0, symName: __ZNSt3__117__compressed_pairIPNS_5tupleIJNS_10unique_ptrINS_15__thread_structENS_14default_deleteIS3_EEEEM13DispatchQueueFvvEPS7_EEENS4_ISB_EEEC1B8ue170006IRSC_NS_16__value_init_tagEEEOT_OT0_, symObjAddr: 0x3E00, symBinAddr: 0x10000E0B0, symSize: 0x3C }
  - { offsetInCU: 0xF22E, offset: 0x263FF, size: 0x8, addend: 0x0, symName: __ZNSt3__117__compressed_pairIPNS_5tupleIJNS_10unique_ptrINS_15__thread_structENS_14default_deleteIS3_EEEEM13DispatchQueueFvvEPS7_EEENS4_ISB_EEEC2B8ue170006IRSC_NS_16__value_init_tagEEEOT_OT0_, symObjAddr: 0x3E3C, symBinAddr: 0x10000E0EC, symSize: 0x40 }
  - { offsetInCU: 0xF286, offset: 0x26457, size: 0x8, addend: 0x0, symName: __ZNSt3__122__compressed_pair_elemIPNS_5tupleIJNS_10unique_ptrINS_15__thread_structENS_14default_deleteIS3_EEEEM13DispatchQueueFvvEPS7_EEELi0ELb0EEC2B8ue170006IRSC_vEEOT_, symObjAddr: 0x3E7C, symBinAddr: 0x10000E12C, symSize: 0x24 }
  - { offsetInCU: 0xF2C8, offset: 0x26499, size: 0x8, addend: 0x0, symName: __ZNSt3__122__compressed_pair_elemINS_14default_deleteINS_5tupleIJNS_10unique_ptrINS_15__thread_structENS1_IS4_EEEEM13DispatchQueueFvvEPS7_EEEEELi1ELb1EEC2B8ue170006ENS_16__value_init_tagE, symObjAddr: 0x3EA0, symBinAddr: 0x10000E150, symSize: 0x14 }
  - { offsetInCU: 0xF32C, offset: 0x264FD, size: 0x8, addend: 0x0, symName: __ZNSt3__121__thread_specific_ptrINS_15__thread_structEE11set_pointerEPS1_, symObjAddr: 0x3EB4, symBinAddr: 0x10000E164, symSize: 0x30 }
  - { offsetInCU: 0xF361, offset: 0x26532, size: 0x8, addend: 0x0, symName: __ZNSt3__112__tuple_leafILm0ENS_10unique_ptrINS_15__thread_structENS_14default_deleteIS2_EEEELb0EE3getB8ue170006Ev, symObjAddr: 0x3F70, symBinAddr: 0x10000E220, symSize: 0x14 }
  - { offsetInCU: 0xF387, offset: 0x26558, size: 0x8, addend: 0x0, symName: __ZNSt3__112__tuple_leafILm1EM13DispatchQueueFvvELb0EE3getB8ue170006Ev, symObjAddr: 0x4054, symBinAddr: 0x10000E304, symSize: 0x14 }
  - { offsetInCU: 0xF3AD, offset: 0x2657E, size: 0x8, addend: 0x0, symName: __ZNSt3__112__tuple_leafILm2EP13DispatchQueueLb0EE3getB8ue170006Ev, symObjAddr: 0x4068, symBinAddr: 0x10000E318, symSize: 0x14 }
  - { offsetInCU: 0xF3D3, offset: 0x265A4, size: 0x8, addend: 0x0, symName: __ZNKSt3__117__compressed_pairIPNS_5tupleIJNS_10unique_ptrINS_15__thread_structENS_14default_deleteIS3_EEEEM13DispatchQueueFvvEPS7_EEENS4_ISB_EEE5firstB8ue170006Ev, symObjAddr: 0x407C, symBinAddr: 0x10000E32C, symSize: 0x24 }
  - { offsetInCU: 0xF3F9, offset: 0x265CA, size: 0x8, addend: 0x0, symName: __ZNKSt3__122__compressed_pair_elemIPNS_5tupleIJNS_10unique_ptrINS_15__thread_structENS_14default_deleteIS3_EEEEM13DispatchQueueFvvEPS7_EEELi0ELb0EE5__getB8ue170006Ev, symObjAddr: 0x40A0, symBinAddr: 0x10000E350, symSize: 0x14 }
  - { offsetInCU: 0xF41F, offset: 0x265F0, size: 0x8, addend: 0x0, symName: __ZNSt3__117__compressed_pairIPNS_5tupleIJNS_10unique_ptrINS_15__thread_structENS_14default_deleteIS3_EEEEM13DispatchQueueFvvEPS7_EEENS4_ISB_EEE5firstB8ue170006Ev, symObjAddr: 0x40B4, symBinAddr: 0x10000E364, symSize: 0x24 }
  - { offsetInCU: 0xF445, offset: 0x26616, size: 0x8, addend: 0x0, symName: __ZNSt3__122__compressed_pair_elemIPNS_5tupleIJNS_10unique_ptrINS_15__thread_structENS_14default_deleteIS3_EEEEM13DispatchQueueFvvEPS7_EEELi0ELb0EE5__getB8ue170006Ev, symObjAddr: 0x40D8, symBinAddr: 0x10000E388, symSize: 0x14 }
  - { offsetInCU: 0xF46B, offset: 0x2663C, size: 0x8, addend: 0x0, symName: __ZNSt3__110unique_ptrINS_5tupleIJNS0_INS_15__thread_structENS_14default_deleteIS2_EEEEM13DispatchQueueFvvEPS6_EEENS3_ISA_EEED2B8ue170006Ev, symObjAddr: 0x40EC, symBinAddr: 0x10000E39C, symSize: 0x30 }
  - { offsetInCU: 0xF495, offset: 0x26666, size: 0x8, addend: 0x0, symName: __ZNSt3__110unique_ptrINS_5tupleIJNS0_INS_15__thread_structENS_14default_deleteIS2_EEEEM13DispatchQueueFvvEPS6_EEENS3_ISA_EEE5resetB8ue170006EPSA_, symObjAddr: 0x411C, symBinAddr: 0x10000E3CC, symSize: 0x78 }
  - { offsetInCU: 0xF4D9, offset: 0x266AA, size: 0x8, addend: 0x0, symName: __ZNSt3__117__compressed_pairIPNS_5tupleIJNS_10unique_ptrINS_15__thread_structENS_14default_deleteIS3_EEEEM13DispatchQueueFvvEPS7_EEENS4_ISB_EEE6secondB8ue170006Ev, symObjAddr: 0x4194, symBinAddr: 0x10000E444, symSize: 0x24 }
  - { offsetInCU: 0xF4FF, offset: 0x266D0, size: 0x8, addend: 0x0, symName: __ZNKSt3__114default_deleteINS_5tupleIJNS_10unique_ptrINS_15__thread_structENS0_IS3_EEEEM13DispatchQueueFvvEPS6_EEEEclB8ue170006EPSA_, symObjAddr: 0x41B8, symBinAddr: 0x10000E468, symSize: 0x4C }
  - { offsetInCU: 0xF533, offset: 0x26704, size: 0x8, addend: 0x0, symName: __ZNSt3__122__compressed_pair_elemINS_14default_deleteINS_5tupleIJNS_10unique_ptrINS_15__thread_structENS1_IS4_EEEEM13DispatchQueueFvvEPS7_EEEEELi1ELb1EE5__getB8ue170006Ev, symObjAddr: 0x4204, symBinAddr: 0x10000E4B4, symSize: 0x14 }
  - { offsetInCU: 0xF559, offset: 0x2672A, size: 0x8, addend: 0x0, symName: __ZNSt3__15tupleIJNS_10unique_ptrINS_15__thread_structENS_14default_deleteIS2_EEEEM13DispatchQueueFvvEPS6_EED1Ev, symObjAddr: 0x4218, symBinAddr: 0x10000E4C8, symSize: 0x2C }
  - { offsetInCU: 0xF586, offset: 0x26757, size: 0x8, addend: 0x0, symName: __ZNSt3__15tupleIJNS_10unique_ptrINS_15__thread_structENS_14default_deleteIS2_EEEEM13DispatchQueueFvvEPS6_EED2Ev, symObjAddr: 0x4244, symBinAddr: 0x10000E4F4, symSize: 0x2C }
  - { offsetInCU: 0xF5B3, offset: 0x26784, size: 0x8, addend: 0x0, symName: __ZNSt3__112__tuple_implINS_15__tuple_indicesIJLm0ELm1ELm2EEEEJNS_10unique_ptrINS_15__thread_structENS_14default_deleteIS4_EEEEM13DispatchQueueFvvEPS8_EED1Ev, symObjAddr: 0x4270, symBinAddr: 0x10000E520, symSize: 0x2C }
  - { offsetInCU: 0xF5E0, offset: 0x267B1, size: 0x8, addend: 0x0, symName: __ZNSt3__112__tuple_implINS_15__tuple_indicesIJLm0ELm1ELm2EEEEJNS_10unique_ptrINS_15__thread_structENS_14default_deleteIS4_EEEEM13DispatchQueueFvvEPS8_EED2Ev, symObjAddr: 0x429C, symBinAddr: 0x10000E54C, symSize: 0x2C }
  - { offsetInCU: 0xF60D, offset: 0x267DE, size: 0x8, addend: 0x0, symName: __ZNSt3__112__tuple_leafILm0ENS_10unique_ptrINS_15__thread_structENS_14default_deleteIS2_EEEELb0EED2Ev, symObjAddr: 0x42C8, symBinAddr: 0x10000E578, symSize: 0x2C }
  - { offsetInCU: 0xF63A, offset: 0x2680B, size: 0x8, addend: 0x0, symName: __ZNSt3__110unique_ptrINS_15__thread_structENS_14default_deleteIS1_EEED2B8ue170006Ev, symObjAddr: 0x42F4, symBinAddr: 0x10000E5A4, symSize: 0x30 }
  - { offsetInCU: 0xF664, offset: 0x26835, size: 0x8, addend: 0x0, symName: __ZNSt3__110unique_ptrINS_15__thread_structENS_14default_deleteIS1_EEE5resetB8ue170006EPS1_, symObjAddr: 0x4324, symBinAddr: 0x10000E5D4, symSize: 0x78 }
  - { offsetInCU: 0xF6A8, offset: 0x26879, size: 0x8, addend: 0x0, symName: __ZNKSt3__114default_deleteINS_15__thread_structEEclB8ue170006EPS1_, symObjAddr: 0x439C, symBinAddr: 0x10000E64C, symSize: 0x4C }
  - { offsetInCU: 0xF6DC, offset: 0x268AD, size: 0x8, addend: 0x0, symName: __ZNSt3__111unique_lockINS_5mutexEEC2B8ue170006ERS1_, symObjAddr: 0x43E8, symBinAddr: 0x10000E698, symSize: 0x44 }
  - { offsetInCU: 0xF714, offset: 0x268E5, size: 0x8, addend: 0x0, symName: __ZNSt3__111unique_lockINS_5mutexEED2B8ue170006Ev, symObjAddr: 0x442C, symBinAddr: 0x10000E6DC, symSize: 0x4C }
  - { offsetInCU: 0xF73E, offset: 0x2690F, size: 0x8, addend: 0x0, symName: __ZNSt3__15dequeINS_8functionIFvvEEENS_9allocatorIS3_EEEaSEOS6_, symObjAddr: 0x4478, symBinAddr: 0x10000E728, symSize: 0x34 }
  - { offsetInCU: 0xF775, offset: 0x26946, size: 0x8, addend: 0x0, symName: __ZNSt3__15dequeINS_8functionIFvvEEENS_9allocatorIS3_EEE13__move_assignERS6_NS_17integral_constantIbLb1EEE, symObjAddr: 0x44AC, symBinAddr: 0x10000E75C, symSize: 0x40 }
  - { offsetInCU: 0xF7B8, offset: 0x26989, size: 0x8, addend: 0x0, symName: __ZNSt3__15dequeINS_8functionIFvvEEENS_9allocatorIS3_EEE13shrink_to_fitEv, symObjAddr: 0x44EC, symBinAddr: 0x10000E79C, symSize: 0xE4 }
  - { offsetInCU: 0xF7EF, offset: 0x269C0, size: 0x8, addend: 0x0, symName: __ZNSt3__15dequeINS_8functionIFvvEEENS_9allocatorIS3_EEE13__move_assignB8ue170006ERS6_, symObjAddr: 0x45D0, symBinAddr: 0x10000E880, symSize: 0x84 }
  - { offsetInCU: 0xF824, offset: 0x269F5, size: 0x8, addend: 0x0, symName: __ZNSt3__114__split_bufferIPNS_8functionIFvvEEENS_9allocatorIS4_EEE4backB8ue170006Ev, symObjAddr: 0x4654, symBinAddr: 0x10000E904, symSize: 0x1C }
  - { offsetInCU: 0xF84A, offset: 0x26A1B, size: 0x8, addend: 0x0, symName: __ZNSt3__114__split_bufferIPNS_8functionIFvvEEENS_9allocatorIS4_EEE8pop_backB8ue170006Ev, symObjAddr: 0x4670, symBinAddr: 0x10000E920, symSize: 0x2C }
  - { offsetInCU: 0xF870, offset: 0x26A41, size: 0x8, addend: 0x0, symName: __ZNSt3__15dequeINS_8functionIFvvEEENS_9allocatorIS3_EEE26__maybe_remove_front_spareB8ue170006Eb, symObjAddr: 0x469C, symBinAddr: 0x10000E94C, symSize: 0xEC }
  - { offsetInCU: 0xF8A5, offset: 0x26A76, size: 0x8, addend: 0x0, symName: __ZNSt3__15dequeINS_8functionIFvvEEENS_9allocatorIS3_EEE25__maybe_remove_back_spareB8ue170006Eb, symObjAddr: 0x4788, symBinAddr: 0x10000EA38, symSize: 0xE8 }
  - { offsetInCU: 0xF8DA, offset: 0x26AAB, size: 0x8, addend: 0x0, symName: __ZNSt3__114__split_bufferIPNS_8functionIFvvEEENS_9allocatorIS4_EEE13shrink_to_fitEv, symObjAddr: 0x4870, symBinAddr: 0x10000EB20, symSize: 0x188 }
  - { offsetInCU: 0xF917, offset: 0x26AE8, size: 0x8, addend: 0x0, symName: __ZNKSt3__15dequeINS_8functionIFvvEEENS_9allocatorIS3_EEE20__front_spare_blocksB8ue170006Ev, symObjAddr: 0x49F8, symBinAddr: 0x10000ECA8, symSize: 0x2C }
  - { offsetInCU: 0xF93D, offset: 0x26B0E, size: 0x8, addend: 0x0, symName: __ZNKSt3__15dequeINS_8functionIFvvEEENS_9allocatorIS3_EEE13__front_spareB8ue170006Ev, symObjAddr: 0x4A24, symBinAddr: 0x10000ECD4, symSize: 0x18 }
  - { offsetInCU: 0xF963, offset: 0x26B34, size: 0x8, addend: 0x0, symName: __ZNKSt3__15dequeINS_8functionIFvvEEENS_9allocatorIS3_EEE19__back_spare_blocksB8ue170006Ev, symObjAddr: 0x4A3C, symBinAddr: 0x10000ECEC, symSize: 0x2C }
  - { offsetInCU: 0xF989, offset: 0x26B5A, size: 0x8, addend: 0x0, symName: __ZNKSt3__15dequeINS_8functionIFvvEEENS_9allocatorIS3_EEE12__back_spareB8ue170006Ev, symObjAddr: 0x4A68, symBinAddr: 0x10000ED18, symSize: 0x54 }
  - { offsetInCU: 0xF9AF, offset: 0x26B80, size: 0x8, addend: 0x0, symName: __ZNKSt3__15dequeINS_8functionIFvvEEENS_9allocatorIS3_EEE10__capacityB8ue170006Ev, symObjAddr: 0x4ABC, symBinAddr: 0x10000ED6C, symSize: 0x60 }
  - { offsetInCU: 0xF9D5, offset: 0x26BA6, size: 0x8, addend: 0x0, symName: __ZNSt3__114__split_bufferIPNS_8functionIFvvEEERNS_9allocatorIS4_EEEC1EmmS7_, symObjAddr: 0x4B1C, symBinAddr: 0x10000EDCC, symSize: 0x44 }
  - { offsetInCU: 0xFA2B, offset: 0x26BFC, size: 0x8, addend: 0x0, symName: __ZNSt3__114__split_bufferIPNS_8functionIFvvEEERNS_9allocatorIS4_EEE18__construct_at_endINS_13move_iteratorIPS4_EEEENS_9enable_ifIXsr31__has_forward_iterator_categoryIT_EE5valueEvE4typeESE_SE_, symObjAddr: 0x4B60, symBinAddr: 0x10000EE10, symSize: 0x60 }
  - { offsetInCU: 0xFA78, offset: 0x26C49, size: 0x8, addend: 0x0, symName: __ZNSt3__113move_iteratorIPPNS_8functionIFvvEEEEC1B8ue170006ES5_, symObjAddr: 0x4BC0, symBinAddr: 0x10000EE70, symSize: 0x34 }
  - { offsetInCU: 0xFAB0, offset: 0x26C81, size: 0x8, addend: 0x0, symName: __ZNSt3__114__split_bufferIPNS_8functionIFvvEEENS_9allocatorIS4_EEE9__end_capB8ue170006Ev, symObjAddr: 0x4C30, symBinAddr: 0x10000EEE0, symSize: 0x28 }
  - { offsetInCU: 0xFAD6, offset: 0x26CA7, size: 0x8, addend: 0x0, symName: __ZNSt3__114__split_bufferIPNS_8functionIFvvEEERNS_9allocatorIS4_EEE9__end_capB8ue170006Ev, symObjAddr: 0x4C58, symBinAddr: 0x10000EF08, symSize: 0x28 }
  - { offsetInCU: 0xFAFC, offset: 0x26CCD, size: 0x8, addend: 0x0, symName: __ZNSt3__114__split_bufferIPNS_8functionIFvvEEERNS_9allocatorIS4_EEED1Ev, symObjAddr: 0x4C80, symBinAddr: 0x10000EF30, symSize: 0x2C }
  - { offsetInCU: 0xFB28, offset: 0x26CF9, size: 0x8, addend: 0x0, symName: __ZNSt3__114__split_bufferIPNS_8functionIFvvEEERNS_9allocatorIS4_EEEC2EmmS7_, symObjAddr: 0x4CAC, symBinAddr: 0x10000EF5C, symSize: 0xD4 }
  - { offsetInCU: 0xFB9B, offset: 0x26D6C, size: 0x8, addend: 0x0, symName: __ZNSt3__117__compressed_pairIPPNS_8functionIFvvEEERNS_9allocatorIS4_EEEC1B8ue170006IDnS8_EEOT_OT0_, symObjAddr: 0x4D80, symBinAddr: 0x10000F030, symSize: 0x3C }
  - { offsetInCU: 0xFBF3, offset: 0x26DC4, size: 0x8, addend: 0x0, symName: __ZNSt3__114__split_bufferIPNS_8functionIFvvEEERNS_9allocatorIS4_EEE7__allocB8ue170006Ev, symObjAddr: 0x4DFC, symBinAddr: 0x10000F0AC, symSize: 0x28 }
  - { offsetInCU: 0xFC19, offset: 0x26DEA, size: 0x8, addend: 0x0, symName: __ZNSt3__117__compressed_pairIPPNS_8functionIFvvEEERNS_9allocatorIS4_EEEC2B8ue170006IDnS8_EEOT_OT0_, symObjAddr: 0x4E24, symBinAddr: 0x10000F0D4, symSize: 0x48 }
  - { offsetInCU: 0xFC71, offset: 0x26E42, size: 0x8, addend: 0x0, symName: __ZNSt3__122__compressed_pair_elemIRNS_9allocatorIPNS_8functionIFvvEEEEELi1ELb0EEC2B8ue170006IS7_vEEOT_, symObjAddr: 0x4E6C, symBinAddr: 0x10000F11C, symSize: 0x20 }
  - { offsetInCU: 0xFCB3, offset: 0x26E84, size: 0x8, addend: 0x0, symName: __ZNSt3__19allocatorIPNS_8functionIFvvEEEE8allocateB8ue170006Em, symObjAddr: 0x4E8C, symBinAddr: 0x10000F13C, symSize: 0x58 }
  - { offsetInCU: 0xFCF1, offset: 0x26EC2, size: 0x8, addend: 0x0, symName: __ZNSt3__116allocator_traitsINS_9allocatorIPNS_8functionIFvvEEEEEE8max_sizeB8ue170006IS6_vEEmRKS6_, symObjAddr: 0x4EE4, symBinAddr: 0x10000F194, symSize: 0x24 }
  - { offsetInCU: 0xFD1F, offset: 0x26EF0, size: 0x8, addend: 0x0, symName: __ZNKSt3__19allocatorIPNS_8functionIFvvEEEE8max_sizeB8ue170006Ev, symObjAddr: 0x4F08, symBinAddr: 0x10000F1B8, symSize: 0x14 }
  - { offsetInCU: 0xFD45, offset: 0x26F16, size: 0x8, addend: 0x0, symName: __ZNSt3__117__compressed_pairIPPNS_8functionIFvvEEERNS_9allocatorIS4_EEE6secondB8ue170006Ev, symObjAddr: 0x4F1C, symBinAddr: 0x10000F1CC, symSize: 0x28 }
  - { offsetInCU: 0xFD6B, offset: 0x26F3C, size: 0x8, addend: 0x0, symName: __ZNSt3__122__compressed_pair_elemIRNS_9allocatorIPNS_8functionIFvvEEEEELi1ELb0EE5__getB8ue170006Ev, symObjAddr: 0x4F44, symBinAddr: 0x10000F1F4, symSize: 0x18 }
  - { offsetInCU: 0xFD91, offset: 0x26F62, size: 0x8, addend: 0x0, symName: __ZNSt3__114__split_bufferIPNS_8functionIFvvEEERNS_9allocatorIS4_EEE28__construct_at_end_with_sizeINS_13move_iteratorIPS4_EEEEvT_m, symObjAddr: 0x4F5C, symBinAddr: 0x10000F20C, symSize: 0xDC }
  - { offsetInCU: 0xFDF7, offset: 0x26FC8, size: 0x8, addend: 0x0, symName: __ZNSt3__114__split_bufferIPNS_8functionIFvvEEERNS_9allocatorIS4_EEE21_ConstructTransactionC1B8ue170006EPPS4_m, symObjAddr: 0x5074, symBinAddr: 0x10000F324, symSize: 0x3C }
  - { offsetInCU: 0xFE3D, offset: 0x2700E, size: 0x8, addend: 0x0, symName: __ZNSt3__116allocator_traitsINS_9allocatorIPNS_8functionIFvvEEEEEE9constructB8ue170006IS5_JS5_EvEEvRS6_PT_DpOT0_, symObjAddr: 0x50B0, symBinAddr: 0x10000F360, symSize: 0x34 }
  - { offsetInCU: 0xFE94, offset: 0x27065, size: 0x8, addend: 0x0, symName: __ZNKSt3__113move_iteratorIPPNS_8functionIFvvEEEEdeB8ue170006Ev, symObjAddr: 0x50E4, symBinAddr: 0x10000F394, symSize: 0x18 }
  - { offsetInCU: 0xFEBA, offset: 0x2708B, size: 0x8, addend: 0x0, symName: __ZNSt3__113move_iteratorIPPNS_8functionIFvvEEEEppB8ue170006Ev, symObjAddr: 0x50FC, symBinAddr: 0x10000F3AC, symSize: 0x20 }
  - { offsetInCU: 0xFEE0, offset: 0x270B1, size: 0x8, addend: 0x0, symName: __ZNSt3__114__split_bufferIPNS_8functionIFvvEEERNS_9allocatorIS4_EEE21_ConstructTransactionD1B8ue170006Ev, symObjAddr: 0x511C, symBinAddr: 0x10000F3CC, symSize: 0x2C }
  - { offsetInCU: 0xFF0A, offset: 0x270DB, size: 0x8, addend: 0x0, symName: __ZNSt3__114__split_bufferIPNS_8functionIFvvEEERNS_9allocatorIS4_EEE21_ConstructTransactionC2B8ue170006EPPS4_m, symObjAddr: 0x5148, symBinAddr: 0x10000F3F8, symSize: 0x44 }
  - { offsetInCU: 0xFF50, offset: 0x27121, size: 0x8, addend: 0x0, symName: __ZNSt3__19allocatorIPNS_8functionIFvvEEEE9constructB8ue170006IS4_JS4_EEEvPT_DpOT0_, symObjAddr: 0x518C, symBinAddr: 0x10000F43C, symSize: 0x28 }
  - { offsetInCU: 0xFFA6, offset: 0x27177, size: 0x8, addend: 0x0, symName: __ZNSt3__114__split_bufferIPNS_8functionIFvvEEERNS_9allocatorIS4_EEE21_ConstructTransactionD2B8ue170006Ev, symObjAddr: 0x51B4, symBinAddr: 0x10000F464, symSize: 0x20 }
  - { offsetInCU: 0xFFD0, offset: 0x271A1, size: 0x8, addend: 0x0, symName: __ZNKSt3__113move_iteratorIPPNS_8functionIFvvEEEE4baseB8ue170006Ev, symObjAddr: 0x524C, symBinAddr: 0x10000F4FC, symSize: 0x18 }
  - { offsetInCU: 0xFFF6, offset: 0x271C7, size: 0x8, addend: 0x0, symName: __ZNSt3__113move_iteratorIPPNS_8functionIFvvEEEEC2B8ue170006ES5_, symObjAddr: 0x5264, symBinAddr: 0x10000F514, symSize: 0x20 }
  - { offsetInCU: 0x1002E, offset: 0x271FF, size: 0x8, addend: 0x0, symName: __ZNSt3__117__compressed_pairIPPNS_8functionIFvvEEENS_9allocatorIS4_EEE5firstB8ue170006Ev, symObjAddr: 0x5284, symBinAddr: 0x10000F534, symSize: 0x24 }
  - { offsetInCU: 0x10054, offset: 0x27225, size: 0x8, addend: 0x0, symName: __ZNSt3__122__compressed_pair_elemIPPNS_8functionIFvvEEELi0ELb0EE5__getB8ue170006Ev, symObjAddr: 0x52A8, symBinAddr: 0x10000F558, symSize: 0x14 }
  - { offsetInCU: 0x1007A, offset: 0x2724B, size: 0x8, addend: 0x0, symName: __ZNSt3__117__compressed_pairIPPNS_8functionIFvvEEERNS_9allocatorIS4_EEE5firstB8ue170006Ev, symObjAddr: 0x52BC, symBinAddr: 0x10000F56C, symSize: 0x24 }
  - { offsetInCU: 0x100A0, offset: 0x27271, size: 0x8, addend: 0x0, symName: __ZNSt3__114__split_bufferIPNS_8functionIFvvEEERNS_9allocatorIS4_EEED2Ev, symObjAddr: 0x52E0, symBinAddr: 0x10000F590, symSize: 0x8C }
  - { offsetInCU: 0x100CC, offset: 0x2729D, size: 0x8, addend: 0x0, symName: __ZNSt3__114__split_bufferIPNS_8functionIFvvEEERNS_9allocatorIS4_EEE5clearB8ue170006Ev, symObjAddr: 0x536C, symBinAddr: 0x10000F61C, symSize: 0x28 }
  - { offsetInCU: 0x100F2, offset: 0x272C3, size: 0x8, addend: 0x0, symName: __ZNKSt3__114__split_bufferIPNS_8functionIFvvEEERNS_9allocatorIS4_EEE8capacityB8ue170006Ev, symObjAddr: 0x5394, symBinAddr: 0x10000F644, symSize: 0x40 }
  - { offsetInCU: 0x10118, offset: 0x272E9, size: 0x8, addend: 0x0, symName: __ZNSt3__114__split_bufferIPNS_8functionIFvvEEERNS_9allocatorIS4_EEE17__destruct_at_endB8ue170006EPS4_, symObjAddr: 0x53D4, symBinAddr: 0x10000F684, symSize: 0x2C }
  - { offsetInCU: 0x1014C, offset: 0x2731D, size: 0x8, addend: 0x0, symName: __ZNSt3__114__split_bufferIPNS_8functionIFvvEEERNS_9allocatorIS4_EEE17__destruct_at_endB8ue170006EPS4_NS_17integral_constantIbLb0EEE, symObjAddr: 0x5400, symBinAddr: 0x10000F6B0, symSize: 0x80 }
  - { offsetInCU: 0x1018D, offset: 0x2735E, size: 0x8, addend: 0x0, symName: __ZNKSt3__114__split_bufferIPNS_8functionIFvvEEERNS_9allocatorIS4_EEE9__end_capB8ue170006Ev, symObjAddr: 0x5480, symBinAddr: 0x10000F730, symSize: 0x28 }
  - { offsetInCU: 0x101B3, offset: 0x27384, size: 0x8, addend: 0x0, symName: __ZNKSt3__117__compressed_pairIPPNS_8functionIFvvEEERNS_9allocatorIS4_EEE5firstB8ue170006Ev, symObjAddr: 0x54A8, symBinAddr: 0x10000F758, symSize: 0x24 }
  - { offsetInCU: 0x101D9, offset: 0x273AA, size: 0x8, addend: 0x0, symName: __ZNSt3__114__split_bufferIPNS_8functionIFvvEEENS_9allocatorIS4_EEEaSEOS7_, symObjAddr: 0x54CC, symBinAddr: 0x10000F77C, symSize: 0xBC }
  - { offsetInCU: 0x1020F, offset: 0x273E0, size: 0x8, addend: 0x0, symName: __ZNSt3__15dequeINS_8functionIFvvEEENS_9allocatorIS3_EEE19__move_assign_allocB8ue170006ERS6_, symObjAddr: 0x5588, symBinAddr: 0x10000F838, symSize: 0x2C }
  - { offsetInCU: 0x10244, offset: 0x27415, size: 0x8, addend: 0x0, symName: __ZNSt3__114__split_bufferIPNS_8functionIFvvEEENS_9allocatorIS4_EEE19__move_assign_allocB8ue170006ERS7_NS_17integral_constantIbLb1EEE, symObjAddr: 0x55B4, symBinAddr: 0x10000F864, symSize: 0x38 }
  - { offsetInCU: 0x10283, offset: 0x27454, size: 0x8, addend: 0x0, symName: __ZNSt3__15dequeINS_8functionIFvvEEENS_9allocatorIS3_EEE19__move_assign_allocB8ue170006ERS6_NS_17integral_constantIbLb1EEE, symObjAddr: 0x55EC, symBinAddr: 0x10000F89C, symSize: 0x38 }
  - { offsetInCU: 0x102C4, offset: 0x27495, size: 0x8, addend: 0x0, symName: __ZNSt3__15dequeINS_8functionIFvvEEENS_9allocatorIS3_EEE9push_backERKS3_, symObjAddr: 0x5624, symBinAddr: 0x10000F8D4, symSize: 0xAC }
  - { offsetInCU: 0x1030A, offset: 0x274DB, size: 0x8, addend: 0x0, symName: __ZNSt3__15dequeINS_8functionIFvvEEENS_9allocatorIS3_EEE19__add_back_capacityEv, symObjAddr: 0x56D0, symBinAddr: 0x10000F980, symSize: 0x34C }
  - { offsetInCU: 0x103BF, offset: 0x27590, size: 0x8, addend: 0x0, symName: __ZNKSt3__15dequeINS_8functionIFvvEEENS_9allocatorIS3_EEE24__annotate_increase_backB8ue170006Em, symObjAddr: 0x5A1C, symBinAddr: 0x10000FCCC, symSize: 0x7C }
  - { offsetInCU: 0x103F4, offset: 0x275C5, size: 0x8, addend: 0x0, symName: __ZNSt3__116allocator_traitsINS_9allocatorINS_8functionIFvvEEEEEE9constructB8ue170006IS4_JRKS4_EvEEvRS5_PT_DpOT0_, symObjAddr: 0x5A98, symBinAddr: 0x10000FD48, symSize: 0x34 }
  - { offsetInCU: 0x1044B, offset: 0x2761C, size: 0x8, addend: 0x0, symName: __ZNSt3__114__split_bufferIPNS_8functionIFvvEEENS_9allocatorIS4_EEE9push_backB8ue170006ERKS4_, symObjAddr: 0x5ACC, symBinAddr: 0x10000FD7C, symSize: 0x260 }
  - { offsetInCU: 0x104C3, offset: 0x27694, size: 0x8, addend: 0x0, symName: __ZNKSt3__114__split_bufferIPNS_8functionIFvvEEENS_9allocatorIS4_EEE12__back_spareB8ue170006Ev, symObjAddr: 0x5D2C, symBinAddr: 0x10000FFDC, symSize: 0x40 }
  - { offsetInCU: 0x104E9, offset: 0x276BA, size: 0x8, addend: 0x0, symName: __ZNSt3__114__split_bufferIPNS_8functionIFvvEEENS_9allocatorIS4_EEE9push_backEOS4_, symObjAddr: 0x5D6C, symBinAddr: 0x10001001C, symSize: 0x260 }
  - { offsetInCU: 0x10561, offset: 0x27732, size: 0x8, addend: 0x0, symName: __ZNSt3__116allocator_traitsINS_9allocatorINS_8functionIFvvEEEEEE8allocateB8ue170006ERS5_m, symObjAddr: 0x5FCC, symBinAddr: 0x10001027C, symSize: 0x2C }
  - { offsetInCU: 0x10594, offset: 0x27765, size: 0x8, addend: 0x0, symName: __ZNSt3__114__split_bufferIPNS_8functionIFvvEEENS_9allocatorIS4_EEE10push_frontEOS4_, symObjAddr: 0x5FF8, symBinAddr: 0x1000102A8, symSize: 0x25C }
  - { offsetInCU: 0x10611, offset: 0x277E2, size: 0x8, addend: 0x0, symName: __ZNSt3__122__allocator_destructorINS_9allocatorINS_8functionIFvvEEEEEEC1B8ue170006ERS5_m, symObjAddr: 0x6280, symBinAddr: 0x100010504, symSize: 0x3C }
  - { offsetInCU: 0x106D6, offset: 0x278A7, size: 0x8, addend: 0x0, symName: __ZNSt3__110unique_ptrIPNS_8functionIFvvEEENS_22__allocator_destructorINS_9allocatorIS3_EEEEEC1B8ue170006ILb1EvEES4_NS_16__dependent_typeINS_27__unique_ptr_deleter_sfinaeIS8_EEXT_EE20__good_rval_ref_typeE, symObjAddr: 0x62BC, symBinAddr: 0x100010540, symSize: 0x3C }
  - { offsetInCU: 0x10727, offset: 0x278F8, size: 0x8, addend: 0x0, symName: __ZNSt3__114__split_bufferIPNS_8functionIFvvEEERNS_9allocatorIS4_EEE9push_backEOS4_, symObjAddr: 0x62F8, symBinAddr: 0x10001057C, symSize: 0x260 }
  - { offsetInCU: 0x1079F, offset: 0x27970, size: 0x8, addend: 0x0, symName: __ZNKSt3__110unique_ptrIPNS_8functionIFvvEEENS_22__allocator_destructorINS_9allocatorIS3_EEEEE3getB8ue170006Ev, symObjAddr: 0x6558, symBinAddr: 0x1000107DC, symSize: 0x28 }
  - { offsetInCU: 0x107C5, offset: 0x27996, size: 0x8, addend: 0x0, symName: __ZNSt3__110unique_ptrIPNS_8functionIFvvEEENS_22__allocator_destructorINS_9allocatorIS3_EEEEE7releaseB8ue170006Ev, symObjAddr: 0x6580, symBinAddr: 0x100010804, symSize: 0x44 }
  - { offsetInCU: 0x107FA, offset: 0x279CB, size: 0x8, addend: 0x0, symName: __ZNSt3__114__split_bufferIPNS_8functionIFvvEEERNS_9allocatorIS4_EEE10push_frontERKS4_, symObjAddr: 0x65C4, symBinAddr: 0x100010848, symSize: 0x25C }
  - { offsetInCU: 0x10872, offset: 0x27A43, size: 0x8, addend: 0x0, symName: __ZNSt3__110unique_ptrIPNS_8functionIFvvEEENS_22__allocator_destructorINS_9allocatorIS3_EEEEED1B8ue170006Ev, symObjAddr: 0x6820, symBinAddr: 0x100010AA4, symSize: 0x2C }
  - { offsetInCU: 0x1089C, offset: 0x27A6D, size: 0x8, addend: 0x0, symName: __ZNSt3__116allocator_traitsINS_9allocatorIPNS_8functionIFvvEEEEEE9constructB8ue170006IS5_JRKS5_EvEEvRS6_PT_DpOT0_, symObjAddr: 0x688C, symBinAddr: 0x100010B10, symSize: 0x34 }
  - { offsetInCU: 0x10917, offset: 0x27AE8, size: 0x8, addend: 0x0, symName: __ZNKSt3__114__move_trivialclB8ue170006IPNS_8functionIFvvEEES5_Li0EEENS_4pairIPT_PT0_EES8_S8_SA_, symObjAddr: 0x6A5C, symBinAddr: 0x100010CE0, symSize: 0x48 }
  - { offsetInCU: 0x10985, offset: 0x27B56, size: 0x8, addend: 0x0, symName: __ZNSt3__14pairIPPNS_8functionIFvvEEES5_EC1B8ue170006IRS5_S5_LPv0EEEOT_OT0_, symObjAddr: 0x6C84, symBinAddr: 0x100010F08, symSize: 0x3C }
  - { offsetInCU: 0x109E3, offset: 0x27BB4, size: 0x8, addend: 0x0, symName: __ZNSt3__14pairIPPNS_8functionIFvvEEES5_EC2B8ue170006IRS5_S5_LPv0EEEOT_OT0_, symObjAddr: 0x6CC0, symBinAddr: 0x100010F44, symSize: 0x34 }
  - { offsetInCU: 0x10A41, offset: 0x27C12, size: 0x8, addend: 0x0, symName: __ZNSt3__118__unwrap_iter_implIPPNS_8functionIFvvEEELb1EE8__unwrapB8ue170006ES5_, symObjAddr: 0x6CF4, symBinAddr: 0x100010F78, symSize: 0x24 }
  - { offsetInCU: 0x10A64, offset: 0x27C35, size: 0x8, addend: 0x0, symName: __ZNSt3__14pairIPPNS_8functionIFvvEEES5_EC1B8ue170006IS5_S5_LPv0EEEOT_OT0_, symObjAddr: 0x6D18, symBinAddr: 0x100010F9C, symSize: 0x3C }
  - { offsetInCU: 0x10AC2, offset: 0x27C93, size: 0x8, addend: 0x0, symName: __ZNSt3__14pairIPPNS_8functionIFvvEEES5_EC2B8ue170006IS5_S5_LPv0EEEOT_OT0_, symObjAddr: 0x6D54, symBinAddr: 0x100010FD8, symSize: 0x34 }
  - { offsetInCU: 0x10B20, offset: 0x27CF1, size: 0x8, addend: 0x0, symName: __ZNSt3__118__unwrap_iter_implIPPNS_8functionIFvvEEELb1EE8__rewrapB8ue170006ES5_S5_, symObjAddr: 0x6D88, symBinAddr: 0x10001100C, symSize: 0x50 }
  - { offsetInCU: 0x10B51, offset: 0x27D22, size: 0x8, addend: 0x0, symName: __ZNSt3__19allocatorIPNS_8functionIFvvEEEE9constructB8ue170006IS4_JRKS4_EEEvPT_DpOT0_, symObjAddr: 0x6DD8, symBinAddr: 0x10001105C, symSize: 0x28 }
  - { offsetInCU: 0x10BA7, offset: 0x27D78, size: 0x8, addend: 0x0, symName: __ZNSt3__19allocatorINS_8functionIFvvEEEE8allocateB8ue170006Em, symObjAddr: 0x6E00, symBinAddr: 0x100011084, symSize: 0x58 }
  - { offsetInCU: 0x10BE5, offset: 0x27DB6, size: 0x8, addend: 0x0, symName: __ZNSt3__116allocator_traitsINS_9allocatorINS_8functionIFvvEEEEEE8max_sizeB8ue170006IS5_vEEmRKS5_, symObjAddr: 0x6E58, symBinAddr: 0x1000110DC, symSize: 0x24 }
  - { offsetInCU: 0x10C13, offset: 0x27DE4, size: 0x8, addend: 0x0, symName: __ZNKSt3__19allocatorINS_8functionIFvvEEEE8max_sizeB8ue170006Ev, symObjAddr: 0x6E7C, symBinAddr: 0x100011100, symSize: 0x14 }
  - { offsetInCU: 0x10C43, offset: 0x27E14, size: 0x8, addend: 0x0, symName: __ZNKSt3__123__move_backward_trivialclB8ue170006IPNS_8functionIFvvEEES5_Li0EEENS_4pairIPT_PT0_EES8_S8_SA_, symObjAddr: 0x700C, symBinAddr: 0x100011290, symSize: 0x48 }
  - { offsetInCU: 0x10CAB, offset: 0x27E7C, size: 0x8, addend: 0x0, symName: __ZNSt3__14pairIPPNS_8functionIFvvEEES5_EC1B8ue170006IRS5_S8_LPv0EEEOT_OT0_, symObjAddr: 0x711C, symBinAddr: 0x1000113A0, symSize: 0x3C }
  - { offsetInCU: 0x10D09, offset: 0x27EDA, size: 0x8, addend: 0x0, symName: __ZNSt3__14pairIPPNS_8functionIFvvEEES5_EC2B8ue170006IRS5_S8_LPv0EEEOT_OT0_, symObjAddr: 0x7158, symBinAddr: 0x1000113DC, symSize: 0x34 }
  - { offsetInCU: 0x10D67, offset: 0x27F38, size: 0x8, addend: 0x0, symName: __ZNSt3__122__allocator_destructorINS_9allocatorINS_8functionIFvvEEEEEEC2B8ue170006ERS5_m, symObjAddr: 0x71E0, symBinAddr: 0x100011410, symSize: 0x2C }
  - { offsetInCU: 0x10DAD, offset: 0x27F7E, size: 0x8, addend: 0x0, symName: __ZNSt3__110unique_ptrIPNS_8functionIFvvEEENS_22__allocator_destructorINS_9allocatorIS3_EEEEEC2B8ue170006ILb1EvEES4_NS_16__dependent_typeINS_27__unique_ptr_deleter_sfinaeIS8_EEXT_EE20__good_rval_ref_typeE, symObjAddr: 0x720C, symBinAddr: 0x10001143C, symSize: 0x48 }
  - { offsetInCU: 0x10DFE, offset: 0x27FCF, size: 0x8, addend: 0x0, symName: __ZNSt3__117__compressed_pairIPNS_8functionIFvvEEENS_22__allocator_destructorINS_9allocatorIS3_EEEEEC1B8ue170006IRS4_S8_EEOT_OT0_, symObjAddr: 0x7254, symBinAddr: 0x100011484, symSize: 0x3C }
  - { offsetInCU: 0x10E56, offset: 0x28027, size: 0x8, addend: 0x0, symName: __ZNSt3__117__compressed_pairIPNS_8functionIFvvEEENS_22__allocator_destructorINS_9allocatorIS3_EEEEEC2B8ue170006IRS4_S8_EEOT_OT0_, symObjAddr: 0x7290, symBinAddr: 0x1000114C0, symSize: 0x48 }
  - { offsetInCU: 0x10EAE, offset: 0x2807F, size: 0x8, addend: 0x0, symName: __ZNSt3__122__compressed_pair_elemIPNS_8functionIFvvEEELi0ELb0EEC2B8ue170006IRS4_vEEOT_, symObjAddr: 0x72D8, symBinAddr: 0x100011508, symSize: 0x24 }
  - { offsetInCU: 0x10EF0, offset: 0x280C1, size: 0x8, addend: 0x0, symName: __ZNSt3__122__compressed_pair_elemINS_22__allocator_destructorINS_9allocatorINS_8functionIFvvEEEEEEELi1ELb0EEC2B8ue170006IS7_vEEOT_, symObjAddr: 0x72FC, symBinAddr: 0x10001152C, symSize: 0x24 }
  - { offsetInCU: 0x10F32, offset: 0x28103, size: 0x8, addend: 0x0, symName: __ZNKSt3__117__compressed_pairIPNS_8functionIFvvEEENS_22__allocator_destructorINS_9allocatorIS3_EEEEE5firstB8ue170006Ev, symObjAddr: 0x7320, symBinAddr: 0x100011550, symSize: 0x24 }
  - { offsetInCU: 0x10F58, offset: 0x28129, size: 0x8, addend: 0x0, symName: __ZNKSt3__122__compressed_pair_elemIPNS_8functionIFvvEEELi0ELb0EE5__getB8ue170006Ev, symObjAddr: 0x7344, symBinAddr: 0x100011574, symSize: 0x14 }
  - { offsetInCU: 0x10F7E, offset: 0x2814F, size: 0x8, addend: 0x0, symName: __ZNSt3__117__compressed_pairIPNS_8functionIFvvEEENS_22__allocator_destructorINS_9allocatorIS3_EEEEE5firstB8ue170006Ev, symObjAddr: 0x7358, symBinAddr: 0x100011588, symSize: 0x24 }
  - { offsetInCU: 0x10FA4, offset: 0x28175, size: 0x8, addend: 0x0, symName: __ZNSt3__122__compressed_pair_elemIPNS_8functionIFvvEEELi0ELb0EE5__getB8ue170006Ev, symObjAddr: 0x737C, symBinAddr: 0x1000115AC, symSize: 0x14 }
  - { offsetInCU: 0x10FCA, offset: 0x2819B, size: 0x8, addend: 0x0, symName: __ZNSt3__110unique_ptrIPNS_8functionIFvvEEENS_22__allocator_destructorINS_9allocatorIS3_EEEEED2B8ue170006Ev, symObjAddr: 0x7390, symBinAddr: 0x1000115C0, symSize: 0x30 }
  - { offsetInCU: 0x10FF4, offset: 0x281C5, size: 0x8, addend: 0x0, symName: __ZNSt3__110unique_ptrIPNS_8functionIFvvEEENS_22__allocator_destructorINS_9allocatorIS3_EEEEE5resetB8ue170006ES4_, symObjAddr: 0x73C0, symBinAddr: 0x1000115F0, symSize: 0x78 }
  - { offsetInCU: 0x11038, offset: 0x28209, size: 0x8, addend: 0x0, symName: __ZNSt3__117__compressed_pairIPNS_8functionIFvvEEENS_22__allocator_destructorINS_9allocatorIS3_EEEEE6secondB8ue170006Ev, symObjAddr: 0x7438, symBinAddr: 0x100011668, symSize: 0x28 }
  - { offsetInCU: 0x1105E, offset: 0x2822F, size: 0x8, addend: 0x0, symName: __ZNSt3__122__allocator_destructorINS_9allocatorINS_8functionIFvvEEEEEEclB8ue170006EPS4_, symObjAddr: 0x7460, symBinAddr: 0x100011690, symSize: 0x34 }
  - { offsetInCU: 0x11092, offset: 0x28263, size: 0x8, addend: 0x0, symName: __ZNSt3__122__compressed_pair_elemINS_22__allocator_destructorINS_9allocatorINS_8functionIFvvEEEEEEELi1ELb0EE5__getB8ue170006Ev, symObjAddr: 0x7494, symBinAddr: 0x1000116C4, symSize: 0x14 }
  - { offsetInCU: 0x110B8, offset: 0x28289, size: 0x8, addend: 0x0, symName: __ZNSt3__19allocatorINS_8functionIFvvEEEE9constructB8ue170006IS3_JRKS3_EEEvPT_DpOT0_, symObjAddr: 0x74A8, symBinAddr: 0x1000116D8, symSize: 0x30 }
  - { offsetInCU: 0x1110E, offset: 0x282DF, size: 0x8, addend: 0x0, symName: __ZNSt3__18functionIFvvEEC1ERKS2_, symObjAddr: 0x74D8, symBinAddr: 0x100011708, symSize: 0x34 }
  - { offsetInCU: 0x11149, offset: 0x2831A, size: 0x8, addend: 0x0, symName: __ZNSt3__18functionIFvvEEC2ERKS2_, symObjAddr: 0x750C, symBinAddr: 0x10001173C, symSize: 0x34 }
  - { offsetInCU: 0x11184, offset: 0x28355, size: 0x8, addend: 0x0, symName: __ZNSt3__110__function12__value_funcIFvvEEC1B8ue170006ERKS3_, symObjAddr: 0x7540, symBinAddr: 0x100011770, symSize: 0x34 }
  - { offsetInCU: 0x111BD, offset: 0x2838E, size: 0x8, addend: 0x0, symName: __ZNSt3__110__function12__value_funcIFvvEEC2B8ue170006ERKS3_, symObjAddr: 0x7574, symBinAddr: 0x1000117A4, symSize: 0xC0 }
  - { offsetInCU: 0x111F6, offset: 0x283C7, size: 0x8, addend: 0x0, symName: __ZNSt3__110__function12__value_funcIFvvEE9__as_baseB8ue170006EPv, symObjAddr: 0x7634, symBinAddr: 0x100011864, symSize: 0x14 }
  - { offsetInCU: 0x1121A, offset: 0x283EB, size: 0x8, addend: 0x0, symName: __ZNSt3__15dequeINS_8functionIFvvEEENS_9allocatorIS3_EEE9push_backEOS3_, symObjAddr: 0x7648, symBinAddr: 0x100011878, symSize: 0xAC }
  - { offsetInCU: 0x11260, offset: 0x28431, size: 0x8, addend: 0x0, symName: __ZNSt3__116allocator_traitsINS_9allocatorINS_8functionIFvvEEEEEE9constructB8ue170006IS4_JS4_EvEEvRS5_PT_DpOT0_, symObjAddr: 0x76F4, symBinAddr: 0x100011924, symSize: 0x34 }
  - { offsetInCU: 0x112B7, offset: 0x28488, size: 0x8, addend: 0x0, symName: __ZNSt3__19allocatorINS_8functionIFvvEEEE9constructB8ue170006IS3_JS3_EEEvPT_DpOT0_, symObjAddr: 0x7728, symBinAddr: 0x100011958, symSize: 0x30 }
  - { offsetInCU: 0x11317, offset: 0x284E8, size: 0x8, addend: 0x0, symName: '__ZZN13DispatchQueue21dispatchThreadHandlerEvENK3$_0clEv', symObjAddr: 0x7758, symBinAddr: 0x100011988, symSize: 0x60 }
  - { offsetInCU: 0x11341, offset: 0x28512, size: 0x8, addend: 0x0, symName: __ZNSt3__15dequeINS_8functionIFvvEEENS_9allocatorIS3_EEE5frontEv, symObjAddr: 0x77B8, symBinAddr: 0x1000119E8, symSize: 0x50 }
  - { offsetInCU: 0x11369, offset: 0x2853A, size: 0x8, addend: 0x0, symName: __ZNSt3__18functionIFvvEEC2EOS2_, symObjAddr: 0x7808, symBinAddr: 0x100011A38, symSize: 0x34 }
  - { offsetInCU: 0x113A4, offset: 0x28575, size: 0x8, addend: 0x0, symName: __ZNSt3__110__function12__value_funcIFvvEEC1B8ue170006EOS3_, symObjAddr: 0x783C, symBinAddr: 0x100011A6C, symSize: 0x34 }
  - { offsetInCU: 0x113DD, offset: 0x285AE, size: 0x8, addend: 0x0, symName: __ZNSt3__110__function12__value_funcIFvvEEC2B8ue170006EOS3_, symObjAddr: 0x7870, symBinAddr: 0x100011AA0, symSize: 0xC4 }
  - { offsetInCU: 0x11416, offset: 0x285E7, size: 0x8, addend: 0x0, symName: __ZNSt3__18functionIFvvEED2Ev, symObjAddr: 0x7934, symBinAddr: 0x100011B64, symSize: 0x2C }
  - { offsetInCU: 0x11442, offset: 0x28613, size: 0x8, addend: 0x0, symName: __ZNSt3__110__function12__value_funcIFvvEED1B8ue170006Ev, symObjAddr: 0x7960, symBinAddr: 0x100011B90, symSize: 0x2C }
  - { offsetInCU: 0x1146C, offset: 0x2863D, size: 0x8, addend: 0x0, symName: __ZNSt3__110__function12__value_funcIFvvEED2B8ue170006Ev, symObjAddr: 0x798C, symBinAddr: 0x100011BBC, symSize: 0x90 }
  - { offsetInCU: 0x11496, offset: 0x28667, size: 0x8, addend: 0x0, symName: __ZNSt3__15dequeINS_8functionIFvvEEENS_9allocatorIS3_EEE9pop_frontEv, symObjAddr: 0x7A1C, symBinAddr: 0x100011C4C, symSize: 0xD4 }
  - { offsetInCU: 0x114EB, offset: 0x286BC, size: 0x8, addend: 0x0, symName: __ZNKSt3__15dequeINS_8functionIFvvEEENS_9allocatorIS3_EEE23__annotate_shrink_frontB8ue170006Emm, symObjAddr: 0x7AF0, symBinAddr: 0x100011D20, symSize: 0x70 }
  - { offsetInCU: 0x1152F, offset: 0x28700, size: 0x8, addend: 0x0, symName: __ZNKSt3__110__function12__value_funcIFvvEEclB8ue170006Ev, symObjAddr: 0x7B60, symBinAddr: 0x100011D90, symSize: 0x50 }
  - { offsetInCU: 0x57, offset: 0x288D8, size: 0x8, addend: 0x0, symName: __ZN3rtcL26DEFAULT_OPUS_AUDIO_PROFILEE, symObjAddr: 0x5C6D8, symBinAddr: 0x100028000, symSize: 0x0 }
  - { offsetInCU: 0x71, offset: 0x288F2, size: 0x8, addend: 0x0, symName: __ZN3rtcL26DEFAULT_H264_VIDEO_PROFILEE, symObjAddr: 0x5C6F0, symBinAddr: 0x100028018, symSize: 0x0 }
  - { offsetInCU: 0xC82D, offset: 0x350AE, size: 0x8, addend: 0x0, symName: __ZNSt3__16copy_nB8ue170006IPKcmPcEENS_9enable_ifIXsr37__has_random_access_iterator_categoryIT_EE5valueET1_E4typeES5_T0_S6_, symObjAddr: 0x2220, symBinAddr: 0x10001389C, symSize: 0x44 }
  - { offsetInCU: 0xDF0F, offset: 0x36790, size: 0x8, addend: 0x0, symName: __ZNSt3__17advanceB8ue170006IPKSt4bytellvEEvRT_T0_, symObjAddr: 0x5184, symBinAddr: 0x10001649C, symSize: 0x38 }
  - { offsetInCU: 0xF162, offset: 0x379E3, size: 0x8, addend: 0x0, symName: __ZNSt3__1plB8ue170006IcNS_11char_traitsIcEENS_9allocatorIcEEEENS_12basic_stringIT_T0_T1_EEOS9_RKS9_, symObjAddr: 0x750, symBinAddr: 0x1000124F0, symSize: 0x40 }
  - { offsetInCU: 0xF1BA, offset: 0x37A3B, size: 0x8, addend: 0x0, symName: __ZNSt3__1plB8ue170006IcNS_11char_traitsIcEENS_9allocatorIcEEEENS_12basic_stringIT_T0_T1_EERKS9_PKS6_, symObjAddr: 0x790, symBinAddr: 0x100012530, symSize: 0x11C }
  - { offsetInCU: 0xFAD6, offset: 0x38357, size: 0x8, addend: 0x0, symName: __ZNSt3__112__to_addressB8ue170006ISt4byteEEPT_S3_, symObjAddr: 0x10A8, symBinAddr: 0x100012E48, symSize: 0x14 }
  - { offsetInCU: 0xFCF8, offset: 0x38579, size: 0x8, addend: 0x0, symName: __ZNSt3__14copyB8ue170006IPKcPcEET0_T_S5_S4_, symObjAddr: 0x2264, symBinAddr: 0x1000138E0, symSize: 0x40 }
  - { offsetInCU: 0xFD52, offset: 0x385D3, size: 0x8, addend: 0x0, symName: __ZNSt3__16__copyB8ue170006INS_17_ClassicAlgPolicyEPKcS3_PcEENS_4pairIT0_T2_EES6_T1_S7_, symObjAddr: 0x22A4, symBinAddr: 0x100013920, symSize: 0x44 }
  - { offsetInCU: 0xFDBE, offset: 0x3863F, size: 0x8, addend: 0x0, symName: __ZNSt3__123__dispatch_copy_or_moveB8ue170006INS_17_ClassicAlgPolicyENS_11__copy_loopIS1_EENS_14__copy_trivialEPKcS6_PcEENS_4pairIT2_T4_EES9_T3_SA_, symObjAddr: 0x22E8, symBinAddr: 0x100013964, symSize: 0x44 }
  - { offsetInCU: 0xFE3C, offset: 0x386BD, size: 0x8, addend: 0x0, symName: __ZNSt3__121__unwrap_and_dispatchB8ue170006INS_10__overloadINS_11__copy_loopINS_17_ClassicAlgPolicyEEENS_14__copy_trivialEEEPKcS8_PcLi0EEENS_4pairIT0_T2_EESB_T1_SC_, symObjAddr: 0x232C, symBinAddr: 0x1000139A8, symSize: 0xB4 }
  - { offsetInCU: 0xFECA, offset: 0x3874B, size: 0x8, addend: 0x0, symName: __ZNSt3__114__unwrap_rangeB8ue170006IPKcS2_EENS_4pairIT0_S4_EET_S6_, symObjAddr: 0x23E0, symBinAddr: 0x100013A5C, symSize: 0x60 }
  - { offsetInCU: 0x100D7, offset: 0x38958, size: 0x8, addend: 0x0, symName: __ZNSt3__113__unwrap_iterB8ue170006IPcNS_18__unwrap_iter_implIS1_Lb1EEELi0EEEDTclsrT0_8__unwrapclsr3stdE7declvalIT_EEEES5_, symObjAddr: 0x2488, symBinAddr: 0x100013B04, symSize: 0x24 }
  - { offsetInCU: 0x1011B, offset: 0x3899C, size: 0x8, addend: 0x0, symName: __ZNSt3__19make_pairB8ue170006IPKcPcEENS_4pairINS_18__unwrap_ref_decayIT_E4typeENS5_IT0_E4typeEEEOS6_OS9_, symObjAddr: 0x24AC, symBinAddr: 0x100013B28, symSize: 0x38 }
  - { offsetInCU: 0x1016A, offset: 0x389EB, size: 0x8, addend: 0x0, symName: __ZNSt3__114__rewrap_rangeB8ue170006IPKcS2_EET_S3_T0_, symObjAddr: 0x24E4, symBinAddr: 0x100013B60, symSize: 0x2C }
  - { offsetInCU: 0x101B6, offset: 0x38A37, size: 0x8, addend: 0x0, symName: __ZNSt3__113__rewrap_iterB8ue170006IPcS1_NS_18__unwrap_iter_implIS1_Lb1EEEEET_S4_T0_, symObjAddr: 0x2510, symBinAddr: 0x100013B8C, symSize: 0x3C }
  - { offsetInCU: 0x1020B, offset: 0x38A8C, size: 0x8, addend: 0x0, symName: __ZNSt3__19make_pairB8ue170006IPKcS2_EENS_4pairINS_18__unwrap_ref_decayIT_E4typeENS4_IT0_E4typeEEEOS5_OS8_, symObjAddr: 0x254C, symBinAddr: 0x100013BC8, symSize: 0x38 }
  - { offsetInCU: 0x1025A, offset: 0x38ADB, size: 0x8, addend: 0x0, symName: __ZNSt3__113__unwrap_iterB8ue170006IPKcNS_18__unwrap_iter_implIS2_Lb1EEELi0EEEDTclsrT0_8__unwrapclsr3stdE7declvalIT_EEEES6_, symObjAddr: 0x2584, symBinAddr: 0x100013C00, symSize: 0x24 }
  - { offsetInCU: 0x103C5, offset: 0x38C46, size: 0x8, addend: 0x0, symName: __ZNSt3__119__copy_trivial_implB8ue170006IKccEENS_4pairIPT_PT0_EES4_S4_S6_, symObjAddr: 0x2650, symBinAddr: 0x100013CB8, symSize: 0x78 }
  - { offsetInCU: 0x1042D, offset: 0x38CAE, size: 0x8, addend: 0x0, symName: __ZNSt3__119__constexpr_memmoveB8ue170006IcKcLi0EEEPT_S3_PT0_NS_15__element_countE, symObjAddr: 0x26C8, symBinAddr: 0x100013D30, symSize: 0x64 }
  - { offsetInCU: 0x1049B, offset: 0x38D1C, size: 0x8, addend: 0x0, symName: __ZNSt3__19make_pairB8ue170006IRPKcPcEENS_4pairINS_18__unwrap_ref_decayIT_E4typeENS6_IT0_E4typeEEEOS7_OSA_, symObjAddr: 0x272C, symBinAddr: 0x100013D94, symSize: 0x38 }
  - { offsetInCU: 0x1053D, offset: 0x38DBE, size: 0x8, addend: 0x0, symName: __ZNSt3__113__rewrap_iterB8ue170006IPKcS2_NS_18__unwrap_iter_implIS2_Lb1EEEEET_S5_T0_, symObjAddr: 0x2868, symBinAddr: 0x100013ED0, symSize: 0x3C }
  - { offsetInCU: 0x10592, offset: 0x38E13, size: 0x8, addend: 0x0, symName: __ZNSt3__16fill_nB8ue170006IPcmcEET_S2_T0_RKT1_, symObjAddr: 0x29EC, symBinAddr: 0x100013F9C, symSize: 0x44 }
  - { offsetInCU: 0x105F5, offset: 0x38E76, size: 0x8, addend: 0x0, symName: __ZNSt3__18__fill_nB8ue170006IPcmcEET_S2_T0_RKT1_, symObjAddr: 0x2A30, symBinAddr: 0x100013FE0, symSize: 0x64 }
  - { offsetInCU: 0x10658, offset: 0x38ED9, size: 0x8, addend: 0x0, symName: __ZNSt3__121__convert_to_integralB8ue170006Em, symObjAddr: 0x2A94, symBinAddr: 0x100014044, symSize: 0x14 }
  - { offsetInCU: 0x10684, offset: 0x38F05, size: 0x8, addend: 0x0, symName: __ZNSt3__122__make_exception_guardB8ue170006INS_6vectorIcNS_9allocatorIcEEE16__destroy_vectorEEENS_28__exception_guard_exceptionsIT_EES7_, symObjAddr: 0x3008, symBinAddr: 0x100014498, symSize: 0x40 }
  - { offsetInCU: 0x106B9, offset: 0x38F3A, size: 0x8, addend: 0x0, symName: __ZNSt3__1neB8ue170006IcNS_11char_traitsIcEEEEbRKNS_19istreambuf_iteratorIT_T0_EES8_, symObjAddr: 0x307C, symBinAddr: 0x10001450C, symSize: 0x34 }
  - { offsetInCU: 0x10705, offset: 0x38F86, size: 0x8, addend: 0x0, symName: __ZNSt3__119__allocate_at_leastB8ue170006INS_9allocatorIcEEEENS_19__allocation_resultINS_16allocator_traitsIT_E7pointerEEERS5_m, symObjAddr: 0x3D04, symBinAddr: 0x10001501C, symSize: 0x40 }
  - { offsetInCU: 0x10748, offset: 0x38FC9, size: 0x8, addend: 0x0, symName: __ZNSt3__142__uninitialized_allocator_move_if_noexceptB8ue170006INS_9allocatorIcEENS_16reverse_iteratorIPcEES5_cvEET1_RT_T0_S9_S6_, symObjAddr: 0x3F18, symBinAddr: 0x100015230, symSize: 0x78 }
  - { offsetInCU: 0x107C6, offset: 0x39047, size: 0x8, addend: 0x0, symName: __ZNSt3__14swapB8ue170006IPcEENS_9enable_ifIXaasr21is_move_constructibleIT_EE5valuesr18is_move_assignableIS3_EE5valueEvE4typeERS3_S6_, symObjAddr: 0x3FDC, symBinAddr: 0x1000152F4, symSize: 0x3C }
  - { offsetInCU: 0x10817, offset: 0x39098, size: 0x8, addend: 0x0, symName: __ZNSt3__14moveB8ue170006INS_16reverse_iteratorIPcEES3_EET0_T_S5_S4_, symObjAddr: 0x410C, symBinAddr: 0x100015424, symSize: 0x78 }
  - { offsetInCU: 0x10871, offset: 0x390F2, size: 0x8, addend: 0x0, symName: __ZNSt3__16__moveB8ue170006INS_17_ClassicAlgPolicyENS_16reverse_iteratorIPcEES4_S4_EENS_4pairIT0_T2_EES6_T1_S7_, symObjAddr: 0x4184, symBinAddr: 0x10001549C, symSize: 0x64 }
  - { offsetInCU: 0x108DD, offset: 0x3915E, size: 0x8, addend: 0x0, symName: __ZNSt3__123__dispatch_copy_or_moveB8ue170006INS_17_ClassicAlgPolicyENS_11__move_loopIS1_EENS_14__move_trivialENS_16reverse_iteratorIPcEES7_S7_EENS_4pairIT2_T4_EES9_T3_SA_, symObjAddr: 0x41E8, symBinAddr: 0x100015500, symSize: 0x64 }
  - { offsetInCU: 0x1095B, offset: 0x391DC, size: 0x8, addend: 0x0, symName: __ZNSt3__121__unwrap_and_dispatchB8ue170006INS_10__overloadINS_11__move_loopINS_17_ClassicAlgPolicyEEENS_14__move_trivialEEENS_16reverse_iteratorIPcEES9_S9_Li0EEENS_4pairIT0_T2_EESB_T1_SC_, symObjAddr: 0x424C, symBinAddr: 0x100015564, symSize: 0x12C }
  - { offsetInCU: 0x109EB, offset: 0x3926C, size: 0x8, addend: 0x0, symName: __ZNSt3__114__unwrap_rangeB8ue170006INS_16reverse_iteratorIPcEES3_EENS_4pairIT0_S5_EET_S7_, symObjAddr: 0x4378, symBinAddr: 0x100015690, symSize: 0x84 }
  - { offsetInCU: 0x10B5D, offset: 0x393DE, size: 0x8, addend: 0x0, symName: __ZNSt3__113__unwrap_iterB8ue170006INS_16reverse_iteratorIPcEENS_18__unwrap_iter_implIS3_Lb0EEELi0EEEDTclsrT0_8__unwrapclsr3stdE7declvalIT_EEEES7_, symObjAddr: 0x449C, symBinAddr: 0x1000157B4, symSize: 0x44 }
  - { offsetInCU: 0x10BA1, offset: 0x39422, size: 0x8, addend: 0x0, symName: __ZNSt3__19make_pairB8ue170006INS_16reverse_iteratorIPcEES3_EENS_4pairINS_18__unwrap_ref_decayIT_E4typeENS5_IT0_E4typeEEEOS6_OS9_, symObjAddr: 0x44E0, symBinAddr: 0x1000157F8, symSize: 0x38 }
  - { offsetInCU: 0x10BF0, offset: 0x39471, size: 0x8, addend: 0x0, symName: __ZNSt3__114__rewrap_rangeB8ue170006INS_16reverse_iteratorIPcEES3_EET_S4_T0_, symObjAddr: 0x4518, symBinAddr: 0x100015830, symSize: 0x5C }
  - { offsetInCU: 0x10C3C, offset: 0x394BD, size: 0x8, addend: 0x0, symName: __ZNSt3__113__rewrap_iterB8ue170006INS_16reverse_iteratorIPcEES3_NS_18__unwrap_iter_implIS3_Lb0EEEEET_S6_T0_, symObjAddr: 0x4574, symBinAddr: 0x10001588C, symSize: 0x74 }
  - { offsetInCU: 0x10C91, offset: 0x39512, size: 0x8, addend: 0x0, symName: __ZNSt3__1neB8ue170006IPcS1_EEbRKNS_16reverse_iteratorIT_EERKNS2_IT0_EE, symObjAddr: 0x45E8, symBinAddr: 0x100015900, symSize: 0x48 }
  - { offsetInCU: 0x10D8F, offset: 0x39610, size: 0x8, addend: 0x0, symName: __ZNSt3__18distanceB8ue170006IPKSt4byteEENS_15iterator_traitsIT_E15difference_typeES5_S5_, symObjAddr: 0x4DD4, symBinAddr: 0x1000160EC, symSize: 0x2C }
  - { offsetInCU: 0x10DD2, offset: 0x39653, size: 0x8, addend: 0x0, symName: __ZNSt3__14nextB8ue170006IPKSt4byteEENS_9enable_ifIXsr29__has_input_iterator_categoryIT_EE5valueES5_E4typeES5_NS_15iterator_traitsIS5_E15difference_typeE, symObjAddr: 0x4E00, symBinAddr: 0x100016118, symSize: 0x34 }
  - { offsetInCU: 0x10E15, offset: 0x39696, size: 0x8, addend: 0x0, symName: __ZNSt3__14copyB8ue170006IPKSt4bytePS1_EET0_T_S6_S5_, symObjAddr: 0x4E34, symBinAddr: 0x10001614C, symSize: 0x40 }
  - { offsetInCU: 0x10E6F, offset: 0x396F0, size: 0x8, addend: 0x0, symName: __ZNSt3__16__copyB8ue170006INS_17_ClassicAlgPolicyEPKSt4byteS4_PS2_EENS_4pairIT0_T2_EES7_T1_S8_, symObjAddr: 0x4F00, symBinAddr: 0x100016218, symSize: 0x44 }
  - { offsetInCU: 0x10EDB, offset: 0x3975C, size: 0x8, addend: 0x0, symName: __ZNSt3__121__convert_to_integralB8ue170006El, symObjAddr: 0x51BC, symBinAddr: 0x1000164D4, symSize: 0x14 }
  - { offsetInCU: 0x10F07, offset: 0x39788, size: 0x8, addend: 0x0, symName: __ZNSt3__19__advanceB8ue170006IPKSt4byteEEvRT_NS_15iterator_traitsIS4_E15difference_typeENS_26random_access_iterator_tagE, symObjAddr: 0x51D0, symBinAddr: 0x1000164E8, symSize: 0x28 }
  - { offsetInCU: 0x10F52, offset: 0x397D3, size: 0x8, addend: 0x0, symName: __ZNSt3__130__uninitialized_allocator_copyB8ue170006INS_9allocatorISt4byteEEPKS2_S5_PS2_EET2_RT_T0_T1_S7_, symObjAddr: 0x5234, symBinAddr: 0x10001654C, symSize: 0x80 }
  - { offsetInCU: 0x10FEF, offset: 0x39870, size: 0x8, addend: 0x0, symName: __ZNSt3__114__unwrap_rangeB8ue170006IPKSt4byteS3_EENS_4pairIT0_S5_EET_S7_, symObjAddr: 0x5324, symBinAddr: 0x10001663C, symSize: 0x60 }
  - { offsetInCU: 0x1103B, offset: 0x398BC, size: 0x8, addend: 0x0, symName: __ZNSt3__135__uninitialized_allocator_copy_implB8ue170006INS_9allocatorISt4byteEEKS2_S2_S2_LPv0EEEPT2_RT_PT0_SB_S7_, symObjAddr: 0x5384, symBinAddr: 0x10001669C, symSize: 0x38 }
  - { offsetInCU: 0x110BD, offset: 0x3993E, size: 0x8, addend: 0x0, symName: __ZNSt3__113__unwrap_iterB8ue170006IPSt4byteNS_18__unwrap_iter_implIS2_Lb1EEELi0EEEDTclsrT0_8__unwrapclsr3stdE7declvalIT_EEEES6_, symObjAddr: 0x53BC, symBinAddr: 0x1000166D4, symSize: 0x24 }
  - { offsetInCU: 0x11101, offset: 0x39982, size: 0x8, addend: 0x0, symName: __ZNSt3__113__rewrap_iterB8ue170006IPSt4byteS2_NS_18__unwrap_iter_implIS2_Lb1EEEEET_S5_T0_, symObjAddr: 0x53E0, symBinAddr: 0x1000166F8, symSize: 0x3C }
  - { offsetInCU: 0x11156, offset: 0x399D7, size: 0x8, addend: 0x0, symName: __ZNSt3__19make_pairB8ue170006IPKSt4byteS3_EENS_4pairINS_18__unwrap_ref_decayIT_E4typeENS5_IT0_E4typeEEEOS6_OS9_, symObjAddr: 0x541C, symBinAddr: 0x100016734, symSize: 0x38 }
  - { offsetInCU: 0x111A5, offset: 0x39A26, size: 0x8, addend: 0x0, symName: __ZNSt3__113__unwrap_iterB8ue170006IPKSt4byteNS_18__unwrap_iter_implIS3_Lb1EEELi0EEEDTclsrT0_8__unwrapclsr3stdE7declvalIT_EEEES7_, symObjAddr: 0x5454, symBinAddr: 0x10001676C, symSize: 0x24 }
  - { offsetInCU: 0x11310, offset: 0x39B91, size: 0x8, addend: 0x0, symName: __ZNSt3__112__to_addressB8ue170006IKSt4byteEEPT_S4_, symObjAddr: 0x550C, symBinAddr: 0x100016824, symSize: 0x14 }
  - { offsetInCU: 0x11398, offset: 0x39C19, size: 0x8, addend: 0x0, symName: __ZNSt3__123__dispatch_copy_or_moveB8ue170006INS_17_ClassicAlgPolicyENS_11__copy_loopIS1_EENS_14__copy_trivialEPKSt4byteS7_PS5_EENS_4pairIT2_T4_EESA_T3_SB_, symObjAddr: 0x55AC, symBinAddr: 0x1000168C4, symSize: 0x44 }
  - { offsetInCU: 0x11416, offset: 0x39C97, size: 0x8, addend: 0x0, symName: __ZNSt3__121__unwrap_and_dispatchB8ue170006INS_10__overloadINS_11__copy_loopINS_17_ClassicAlgPolicyEEENS_14__copy_trivialEEEPKSt4byteS9_PS7_Li0EEENS_4pairIT0_T2_EESC_T1_SD_, symObjAddr: 0x55F0, symBinAddr: 0x100016908, symSize: 0xB4 }
  - { offsetInCU: 0x115A7, offset: 0x39E28, size: 0x8, addend: 0x0, symName: __ZNSt3__19make_pairB8ue170006IPKSt4bytePS1_EENS_4pairINS_18__unwrap_ref_decayIT_E4typeENS6_IT0_E4typeEEEOS7_OSA_, symObjAddr: 0x56EC, symBinAddr: 0x100016A04, symSize: 0x38 }
  - { offsetInCU: 0x115F6, offset: 0x39E77, size: 0x8, addend: 0x0, symName: __ZNSt3__114__rewrap_rangeB8ue170006IPKSt4byteS3_EET_S4_T0_, symObjAddr: 0x5724, symBinAddr: 0x100016A3C, symSize: 0x2C }
  - { offsetInCU: 0x11642, offset: 0x39EC3, size: 0x8, addend: 0x0, symName: __ZNSt3__119__copy_trivial_implB8ue170006IKSt4byteS1_EENS_4pairIPT_PT0_EES5_S5_S7_, symObjAddr: 0x5750, symBinAddr: 0x100016A68, symSize: 0x78 }
  - { offsetInCU: 0x116AA, offset: 0x39F2B, size: 0x8, addend: 0x0, symName: __ZNSt3__119__constexpr_memmoveB8ue170006ISt4byteKS1_Li0EEEPT_S4_PT0_NS_15__element_countE, symObjAddr: 0x57C8, symBinAddr: 0x100016AE0, symSize: 0x64 }
  - { offsetInCU: 0x11718, offset: 0x39F99, size: 0x8, addend: 0x0, symName: __ZNSt3__19make_pairB8ue170006IRPKSt4bytePS1_EENS_4pairINS_18__unwrap_ref_decayIT_E4typeENS7_IT0_E4typeEEEOS8_OSB_, symObjAddr: 0x582C, symBinAddr: 0x100016B44, symSize: 0x38 }
  - { offsetInCU: 0x11767, offset: 0x39FE8, size: 0x8, addend: 0x0, symName: __ZNSt3__113__rewrap_iterB8ue170006IPKSt4byteS3_NS_18__unwrap_iter_implIS3_Lb1EEEEET_S6_T0_, symObjAddr: 0x5944, symBinAddr: 0x100016C5C, symSize: 0x3C }
  - { offsetInCU: 0x117BC, offset: 0x3A03D, size: 0x8, addend: 0x0, symName: __ZNSt3__119__allocate_at_leastB8ue170006INS_9allocatorISt4byteEEEENS_19__allocation_resultINS_16allocator_traitsIT_E7pointerEEERS6_m, symObjAddr: 0x5B9C, symBinAddr: 0x100016EB4, symSize: 0x40 }
  - { offsetInCU: 0x117FF, offset: 0x3A080, size: 0x8, addend: 0x0, symName: __ZNSt3__110__distanceB8ue170006IPKSt4byteEENS_15iterator_traitsIT_E15difference_typeES5_S5_NS_26random_access_iterator_tagE, symObjAddr: 0x5D78, symBinAddr: 0x100017090, symSize: 0x20 }
  - { offsetInCU: 0x1184D, offset: 0x3A0CE, size: 0x8, addend: 0x0, symName: __ZNSt3__122__make_exception_guardB8ue170006INS_6vectorISt4byteNS_9allocatorIS2_EEE16__destroy_vectorEEENS_28__exception_guard_exceptionsIT_EES8_, symObjAddr: 0x5F8C, symBinAddr: 0x1000172A4, symSize: 0x40 }
  - { offsetInCU: 0x11882, offset: 0x3A103, size: 0x8, addend: 0x0, symName: __ZNSt3__130__uninitialized_allocator_copyB8ue170006INS_9allocatorISt4byteEEPS2_S4_S4_EET2_RT_T0_T1_S5_, symObjAddr: 0x60F8, symBinAddr: 0x100017410, symSize: 0x80 }
  - { offsetInCU: 0x1191F, offset: 0x3A1A0, size: 0x8, addend: 0x0, symName: __ZNSt3__114__unwrap_rangeB8ue170006IPSt4byteS2_EENS_4pairIT0_S4_EET_S6_, symObjAddr: 0x6178, symBinAddr: 0x100017490, symSize: 0x60 }
  - { offsetInCU: 0x1196B, offset: 0x3A1EC, size: 0x8, addend: 0x0, symName: __ZNSt3__135__uninitialized_allocator_copy_implB8ue170006INS_9allocatorISt4byteEES2_S2_S2_LPv0EEEPT2_RT_PT0_SA_S6_, symObjAddr: 0x61D8, symBinAddr: 0x1000174F0, symSize: 0x38 }
  - { offsetInCU: 0x119ED, offset: 0x3A26E, size: 0x8, addend: 0x0, symName: __ZNSt3__19make_pairB8ue170006IPSt4byteS2_EENS_4pairINS_18__unwrap_ref_decayIT_E4typeENS4_IT0_E4typeEEEOS5_OS8_, symObjAddr: 0x6210, symBinAddr: 0x100017528, symSize: 0x38 }
  - { offsetInCU: 0x11B3F, offset: 0x3A3C0, size: 0x8, addend: 0x0, symName: __ZNSt3__14copyB8ue170006IPSt4byteS2_EET0_T_S4_S3_, symObjAddr: 0x62B8, symBinAddr: 0x1000175D0, symSize: 0x40 }
  - { offsetInCU: 0x11B99, offset: 0x3A41A, size: 0x8, addend: 0x0, symName: __ZNSt3__16__copyB8ue170006INS_17_ClassicAlgPolicyEPSt4byteS3_S3_EENS_4pairIT0_T2_EES5_T1_S6_, symObjAddr: 0x62F8, symBinAddr: 0x100017610, symSize: 0x44 }
  - { offsetInCU: 0x11C05, offset: 0x3A486, size: 0x8, addend: 0x0, symName: __ZNSt3__123__dispatch_copy_or_moveB8ue170006INS_17_ClassicAlgPolicyENS_11__copy_loopIS1_EENS_14__copy_trivialEPSt4byteS6_S6_EENS_4pairIT2_T4_EES8_T3_S9_, symObjAddr: 0x633C, symBinAddr: 0x100017654, symSize: 0x44 }
  - { offsetInCU: 0x11C83, offset: 0x3A504, size: 0x8, addend: 0x0, symName: __ZNSt3__121__unwrap_and_dispatchB8ue170006INS_10__overloadINS_11__copy_loopINS_17_ClassicAlgPolicyEEENS_14__copy_trivialEEEPSt4byteS8_S8_Li0EEENS_4pairIT0_T2_EESA_T1_SB_, symObjAddr: 0x6380, symBinAddr: 0x100017698, symSize: 0xB4 }
  - { offsetInCU: 0x11D11, offset: 0x3A592, size: 0x8, addend: 0x0, symName: __ZNSt3__114__rewrap_rangeB8ue170006IPSt4byteS2_EET_S3_T0_, symObjAddr: 0x647C, symBinAddr: 0x100017794, symSize: 0x2C }
  - { offsetInCU: 0x11D5D, offset: 0x3A5DE, size: 0x8, addend: 0x0, symName: __ZNSt3__119__copy_trivial_implB8ue170006ISt4byteS1_EENS_4pairIPT_PT0_EES4_S4_S6_, symObjAddr: 0x64A8, symBinAddr: 0x1000177C0, symSize: 0x78 }
  - { offsetInCU: 0x11DC5, offset: 0x3A646, size: 0x8, addend: 0x0, symName: __ZNSt3__119__constexpr_memmoveB8ue170006ISt4byteS1_Li0EEEPT_S3_PT0_NS_15__element_countE, symObjAddr: 0x6520, symBinAddr: 0x100017838, symSize: 0x64 }
  - { offsetInCU: 0x11E33, offset: 0x3A6B4, size: 0x8, addend: 0x0, symName: __ZNSt3__19make_pairB8ue170006IRPSt4byteS2_EENS_4pairINS_18__unwrap_ref_decayIT_E4typeENS5_IT0_E4typeEEEOS6_OS9_, symObjAddr: 0x6584, symBinAddr: 0x10001789C, symSize: 0x38 }
  - { offsetInCU: 0x12C6F, offset: 0x3B4F0, size: 0x8, addend: 0x0, symName: __ZNSt3__16vectorIcNS_9allocatorIcEEE26__swap_out_circular_bufferERNS_14__split_bufferIcRS2_EE, symObjAddr: 0x3808, symBinAddr: 0x100014C70, symSize: 0x110 }
  - { offsetInCU: 0x14DC3, offset: 0x3D644, size: 0x8, addend: 0x0, symName: __ZN10FileParserC2ENSt3__112basic_stringIcNS0_11char_traitsIcEENS0_9allocatorIcEEEES6_jb, symObjAddr: 0x34, symBinAddr: 0x100011DE0, symSize: 0x11C }
  - { offsetInCU: 0x14E29, offset: 0x3D6AA, size: 0x8, addend: 0x0, symName: __ZN12StreamSourceC2Ev, symObjAddr: 0x150, symBinAddr: 0x100011EFC, symSize: 0x24 }
  - { offsetInCU: 0x14E55, offset: 0x3D6D6, size: 0x8, addend: 0x0, symName: __ZNSt3__112basic_stringIcNS_11char_traitsIcEENS_9allocatorIcEEEC1B8ue170006Ev, symObjAddr: 0x174, symBinAddr: 0x100011F20, symSize: 0x2C }
  - { offsetInCU: 0x14E7F, offset: 0x3D700, size: 0x8, addend: 0x0, symName: __ZNSt3__16vectorISt4byteNS_9allocatorIS1_EEEC1B8ue170006Ev, symObjAddr: 0x1A0, symBinAddr: 0x100011F4C, symSize: 0x2C }
  - { offsetInCU: 0x14EA9, offset: 0x3D72A, size: 0x8, addend: 0x0, symName: __ZNSt3__16vectorISt4byteNS_9allocatorIS1_EEED1B8ue170006Ev, symObjAddr: 0x1CC, symBinAddr: 0x100011F78, symSize: 0x2C }
  - { offsetInCU: 0x14ED3, offset: 0x3D754, size: 0x8, addend: 0x0, symName: __ZN10FileParserC1ENSt3__112basic_stringIcNS0_11char_traitsIcEENS0_9allocatorIcEEEES6_jb, symObjAddr: 0x1F8, symBinAddr: 0x100011FA4, symSize: 0x58 }
  - { offsetInCU: 0x14F39, offset: 0x3D7BA, size: 0x8, addend: 0x0, symName: __ZN10FileParserD2Ev, symObjAddr: 0x250, symBinAddr: 0x100011FFC, symSize: 0x70 }
  - { offsetInCU: 0x14F65, offset: 0x3D7E6, size: 0x8, addend: 0x0, symName: __ZN10FileParserD1Ev, symObjAddr: 0x2CC, symBinAddr: 0x10001206C, symSize: 0x2C }
  - { offsetInCU: 0x14F91, offset: 0x3D812, size: 0x8, addend: 0x0, symName: __ZN10FileParserD0Ev, symObjAddr: 0x2F8, symBinAddr: 0x100012098, symSize: 0x30 }
  - { offsetInCU: 0x14FBD, offset: 0x3D83E, size: 0x8, addend: 0x0, symName: __ZN10FileParser5startEv, symObjAddr: 0x328, symBinAddr: 0x1000120C8, symSize: 0x4C }
  - { offsetInCU: 0x14FE5, offset: 0x3D866, size: 0x8, addend: 0x0, symName: __ZNSt3__114numeric_limitsIyE3maxB8ue170006Ev, symObjAddr: 0x374, symBinAddr: 0x100012114, symSize: 0x14 }
  - { offsetInCU: 0x14FF9, offset: 0x3D87A, size: 0x8, addend: 0x0, symName: __ZN10FileParser4stopEv, symObjAddr: 0x388, symBinAddr: 0x100012128, symSize: 0x50 }
  - { offsetInCU: 0x15020, offset: 0x3D8A1, size: 0x8, addend: 0x0, symName: __ZNSt16initializer_listISt4byteEC1B8ue170006Ev, symObjAddr: 0x3D8, symBinAddr: 0x100012178, symSize: 0x2C }
  - { offsetInCU: 0x1504A, offset: 0x3D8CB, size: 0x8, addend: 0x0, symName: __ZNSt3__16vectorISt4byteNS_9allocatorIS1_EEEaSB8ue170006ESt16initializer_listIS1_E, symObjAddr: 0x404, symBinAddr: 0x1000121A4, symSize: 0x60 }
  - { offsetInCU: 0x1507F, offset: 0x3D900, size: 0x8, addend: 0x0, symName: __ZN10FileParser14loadNextSampleEv, symObjAddr: 0x464, symBinAddr: 0x100012204, symSize: 0x2EC }
  - { offsetInCU: 0x1518E, offset: 0x3DA0F, size: 0x8, addend: 0x0, symName: __ZNSt3__114basic_ifstreamIcNS_11char_traitsIcEEEC1ERKNS_12basic_stringIcS2_NS_9allocatorIcEEEEj, symObjAddr: 0x8AC, symBinAddr: 0x10001264C, symSize: 0x16C }
  - { offsetInCU: 0x151D8, offset: 0x3DA59, size: 0x8, addend: 0x0, symName: __ZNKSt3__19basic_iosIcNS_11char_traitsIcEEEntB8ue170006Ev, symObjAddr: 0xA18, symBinAddr: 0x1000127B8, symSize: 0x28 }
  - { offsetInCU: 0x151FE, offset: 0x3DA7F, size: 0x8, addend: 0x0, symName: __ZNSt3__119istreambuf_iteratorIcNS_11char_traitsIcEEEC1B8ue170006ERNS_13basic_istreamIcS2_EE, symObjAddr: 0xA40, symBinAddr: 0x1000127E0, symSize: 0x34 }
  - { offsetInCU: 0x15236, offset: 0x3DAB7, size: 0x8, addend: 0x0, symName: __ZNSt3__119istreambuf_iteratorIcNS_11char_traitsIcEEEC1B8ue170006Ev, symObjAddr: 0xA74, symBinAddr: 0x100012814, symSize: 0x2C }
  - { offsetInCU: 0x15260, offset: 0x3DAE1, size: 0x8, addend: 0x0, symName: __ZNSt3__16vectorIcNS_9allocatorIcEEEC1INS_19istreambuf_iteratorIcNS_11char_traitsIcEEEELi0EEET_S9_, symObjAddr: 0xAA0, symBinAddr: 0x100012840, symSize: 0x3C }
  - { offsetInCU: 0x152B9, offset: 0x3DB3A, size: 0x8, addend: 0x0, symName: __ZNSt3__16vectorIcNS_9allocatorIcEEE4dataB8ue170006Ev, symObjAddr: 0xADC, symBinAddr: 0x10001287C, symSize: 0x28 }
  - { offsetInCU: 0x152DF, offset: 0x3DB60, size: 0x8, addend: 0x0, symName: __ZNSt3__16vectorISt4byteNS_9allocatorIS1_EEE6assignIPKS1_Li0EEEvT_S8_, symObjAddr: 0xB04, symBinAddr: 0x1000128A4, symSize: 0x5C }
  - { offsetInCU: 0x15334, offset: 0x3DBB5, size: 0x8, addend: 0x0, symName: __ZNKSt3__16vectorIcNS_9allocatorIcEEE4sizeB8ue170006Ev, symObjAddr: 0xB60, symBinAddr: 0x100012900, symSize: 0x20 }
  - { offsetInCU: 0x1535A, offset: 0x3DBDB, size: 0x8, addend: 0x0, symName: __ZNSt3__16vectorIcNS_9allocatorIcEEED1B8ue170006Ev, symObjAddr: 0xB80, symBinAddr: 0x100012920, symSize: 0x2C }
  - { offsetInCU: 0x15389, offset: 0x3DC0A, size: 0x8, addend: 0x0, symName: __ZNSt3__114basic_ifstreamIcNS_11char_traitsIcEEED1Ev, symObjAddr: 0xBAC, symBinAddr: 0x10001294C, symSize: 0x40 }
  - { offsetInCU: 0x153B6, offset: 0x3DC37, size: 0x8, addend: 0x0, symName: __ZN10FileParser9getSampleEv, symObjAddr: 0xBEC, symBinAddr: 0x10001298C, symSize: 0x3C }
  - { offsetInCU: 0x153DE, offset: 0x3DC5F, size: 0x8, addend: 0x0, symName: __ZNSt3__16vectorISt4byteNS_9allocatorIS1_EEEC1ERKS4_, symObjAddr: 0xC28, symBinAddr: 0x1000129C8, symSize: 0x34 }
  - { offsetInCU: 0x15419, offset: 0x3DC9A, size: 0x8, addend: 0x0, symName: __ZN10FileParser16getSampleTime_usEv, symObjAddr: 0xC5C, symBinAddr: 0x1000129FC, symSize: 0x18 }
  - { offsetInCU: 0x15441, offset: 0x3DCC2, size: 0x8, addend: 0x0, symName: __ZN10FileParser20getSampleDuration_usEv, symObjAddr: 0xC74, symBinAddr: 0x100012A14, symSize: 0x18 }
  - { offsetInCU: 0x15469, offset: 0x3DCEA, size: 0x8, addend: 0x0, symName: __ZNSt3__123__libcpp_numeric_limitsIyLb1EE3maxB8ue170006Ev, symObjAddr: 0xC8C, symBinAddr: 0x100012A2C, symSize: 0x8 }
  - { offsetInCU: 0x1547D, offset: 0x3DCFE, size: 0x8, addend: 0x0, symName: __ZNSt16initializer_listISt4byteEC2B8ue170006Ev, symObjAddr: 0xC94, symBinAddr: 0x100012A34, symSize: 0x1C }
  - { offsetInCU: 0x154A7, offset: 0x3DD28, size: 0x8, addend: 0x0, symName: __ZNSt3__119istreambuf_iteratorIcNS_11char_traitsIcEEEC2B8ue170006Ev, symObjAddr: 0xCB0, symBinAddr: 0x100012A50, symSize: 0x18 }
  - { offsetInCU: 0x154D1, offset: 0x3DD52, size: 0x8, addend: 0x0, symName: __ZNSt3__114basic_ifstreamIcNS_11char_traitsIcEEED2Ev, symObjAddr: 0xCC8, symBinAddr: 0x100012A68, symSize: 0x64 }
  - { offsetInCU: 0x1550B, offset: 0x3DD8C, size: 0x8, addend: 0x0, symName: __ZTv0_n24_NSt3__114basic_ifstreamIcNS_11char_traitsIcEEED1Ev, symObjAddr: 0xD2C, symBinAddr: 0x100012ACC, symSize: 0x28 }
  - { offsetInCU: 0x15522, offset: 0x3DDA3, size: 0x8, addend: 0x0, symName: __ZNSt3__16vectorISt4byteNS_9allocatorIS1_EEED2B8ue170006Ev, symObjAddr: 0xD54, symBinAddr: 0x100012AF4, symSize: 0x44 }
  - { offsetInCU: 0x1554C, offset: 0x3DDCD, size: 0x8, addend: 0x0, symName: __ZNSt3__16vectorISt4byteNS_9allocatorIS1_EEE16__destroy_vectorC1B8ue170006ERS4_, symObjAddr: 0xD98, symBinAddr: 0x100012B38, symSize: 0x34 }
  - { offsetInCU: 0x15585, offset: 0x3DE06, size: 0x8, addend: 0x0, symName: __ZNSt3__16vectorISt4byteNS_9allocatorIS1_EEE16__destroy_vectorclB8ue170006Ev, symObjAddr: 0xDCC, symBinAddr: 0x100012B6C, symSize: 0x90 }
  - { offsetInCU: 0x155AB, offset: 0x3DE2C, size: 0x8, addend: 0x0, symName: __ZNSt3__16vectorISt4byteNS_9allocatorIS1_EEE16__destroy_vectorC2B8ue170006ERS4_, symObjAddr: 0xE5C, symBinAddr: 0x100012BFC, symSize: 0x20 }
  - { offsetInCU: 0x155E4, offset: 0x3DE65, size: 0x8, addend: 0x0, symName: __ZNSt3__16vectorISt4byteNS_9allocatorIS1_EEE7__clearB8ue170006Ev, symObjAddr: 0xE7C, symBinAddr: 0x100012C1C, symSize: 0x28 }
  - { offsetInCU: 0x1560A, offset: 0x3DE8B, size: 0x8, addend: 0x0, symName: __ZNKSt3__16vectorISt4byteNS_9allocatorIS1_EEE17__annotate_deleteB8ue170006Ev, symObjAddr: 0xEA4, symBinAddr: 0x100012C44, symSize: 0xB8 }
  - { offsetInCU: 0x15630, offset: 0x3DEB1, size: 0x8, addend: 0x0, symName: __ZNSt3__116allocator_traitsINS_9allocatorISt4byteEEE10deallocateB8ue170006ERS3_PS2_m, symObjAddr: 0xF5C, symBinAddr: 0x100012CFC, symSize: 0x34 }
  - { offsetInCU: 0x15672, offset: 0x3DEF3, size: 0x8, addend: 0x0, symName: __ZNSt3__16vectorISt4byteNS_9allocatorIS1_EEE7__allocB8ue170006Ev, symObjAddr: 0xF90, symBinAddr: 0x100012D30, symSize: 0x28 }
  - { offsetInCU: 0x15698, offset: 0x3DF19, size: 0x8, addend: 0x0, symName: __ZNKSt3__16vectorISt4byteNS_9allocatorIS1_EEE8capacityB8ue170006Ev, symObjAddr: 0xFB8, symBinAddr: 0x100012D58, symSize: 0x38 }
  - { offsetInCU: 0x156BE, offset: 0x3DF3F, size: 0x8, addend: 0x0, symName: __ZNSt3__16vectorISt4byteNS_9allocatorIS1_EEE22__base_destruct_at_endB8ue170006EPS1_, symObjAddr: 0xFF0, symBinAddr: 0x100012D90, symSize: 0x8C }
  - { offsetInCU: 0x15702, offset: 0x3DF83, size: 0x8, addend: 0x0, symName: __ZNSt3__116allocator_traitsINS_9allocatorISt4byteEEE7destroyB8ue170006IS2_vEEvRS3_PT_, symObjAddr: 0x107C, symBinAddr: 0x100012E1C, symSize: 0x2C }
  - { offsetInCU: 0x1573F, offset: 0x3DFC0, size: 0x8, addend: 0x0, symName: __ZNSt3__19allocatorISt4byteE7destroyB8ue170006EPS1_, symObjAddr: 0x10BC, symBinAddr: 0x100012E5C, symSize: 0x14 }
  - { offsetInCU: 0x15773, offset: 0x3DFF4, size: 0x8, addend: 0x0, symName: __ZNKSt3__16vectorISt4byteNS_9allocatorIS1_EEE31__annotate_contiguous_containerB8ue170006EPKvS6_S6_S6_, symObjAddr: 0x10D0, symBinAddr: 0x100012E70, symSize: 0x20 }
  - { offsetInCU: 0x157C9, offset: 0x3E04A, size: 0x8, addend: 0x0, symName: __ZNKSt3__16vectorISt4byteNS_9allocatorIS1_EEE4dataB8ue170006Ev, symObjAddr: 0x10F0, symBinAddr: 0x100012E90, symSize: 0x28 }
  - { offsetInCU: 0x157EF, offset: 0x3E070, size: 0x8, addend: 0x0, symName: __ZNKSt3__16vectorISt4byteNS_9allocatorIS1_EEE4sizeB8ue170006Ev, symObjAddr: 0x1118, symBinAddr: 0x100012EB8, symSize: 0x20 }
  - { offsetInCU: 0x15815, offset: 0x3E096, size: 0x8, addend: 0x0, symName: __ZNSt3__19allocatorISt4byteE10deallocateB8ue170006EPS1_m, symObjAddr: 0x1138, symBinAddr: 0x100012ED8, symSize: 0x40 }
  - { offsetInCU: 0x15857, offset: 0x3E0D8, size: 0x8, addend: 0x0, symName: __ZNSt3__117__compressed_pairIPSt4byteNS_9allocatorIS1_EEE6secondB8ue170006Ev, symObjAddr: 0x12A0, symBinAddr: 0x100012F18, symSize: 0x24 }
  - { offsetInCU: 0x1587D, offset: 0x3E0FE, size: 0x8, addend: 0x0, symName: __ZNSt3__122__compressed_pair_elemINS_9allocatorISt4byteEELi1ELb1EE5__getB8ue170006Ev, symObjAddr: 0x12C4, symBinAddr: 0x100012F3C, symSize: 0x14 }
  - { offsetInCU: 0x158A3, offset: 0x3E124, size: 0x8, addend: 0x0, symName: __ZNKSt3__16vectorISt4byteNS_9allocatorIS1_EEE9__end_capB8ue170006Ev, symObjAddr: 0x12D8, symBinAddr: 0x100012F50, symSize: 0x28 }
  - { offsetInCU: 0x158C9, offset: 0x3E14A, size: 0x8, addend: 0x0, symName: __ZNKSt3__117__compressed_pairIPSt4byteNS_9allocatorIS1_EEE5firstB8ue170006Ev, symObjAddr: 0x1300, symBinAddr: 0x100012F78, symSize: 0x24 }
  - { offsetInCU: 0x158EF, offset: 0x3E170, size: 0x8, addend: 0x0, symName: __ZNKSt3__122__compressed_pair_elemIPSt4byteLi0ELb0EE5__getB8ue170006Ev, symObjAddr: 0x1324, symBinAddr: 0x100012F9C, symSize: 0x14 }
  - { offsetInCU: 0x1591B, offset: 0x3E19C, size: 0x8, addend: 0x0, symName: __ZNSt3__16vectorISt4byteNS_9allocatorIS1_EEEC2B8ue170006Ev, symObjAddr: 0x14E0, symBinAddr: 0x100012FB0, symSize: 0x4C }
  - { offsetInCU: 0x1594B, offset: 0x3E1CC, size: 0x8, addend: 0x0, symName: __ZNSt3__117__compressed_pairIPSt4byteNS_9allocatorIS1_EEEC1B8ue170006IDnNS_18__default_init_tagEEEOT_OT0_, symObjAddr: 0x152C, symBinAddr: 0x100012FFC, symSize: 0x3C }
  - { offsetInCU: 0x159A3, offset: 0x3E224, size: 0x8, addend: 0x0, symName: __ZNSt3__117__compressed_pairIPSt4byteNS_9allocatorIS1_EEEC2B8ue170006IDnNS_18__default_init_tagEEEOT_OT0_, symObjAddr: 0x1568, symBinAddr: 0x100013038, symSize: 0x40 }
  - { offsetInCU: 0x159FB, offset: 0x3E27C, size: 0x8, addend: 0x0, symName: __ZNSt3__122__compressed_pair_elemIPSt4byteLi0ELb0EEC2B8ue170006IDnvEEOT_, symObjAddr: 0x15A8, symBinAddr: 0x100013078, symSize: 0x1C }
  - { offsetInCU: 0x15A3D, offset: 0x3E2BE, size: 0x8, addend: 0x0, symName: __ZNSt3__122__compressed_pair_elemINS_9allocatorISt4byteEELi1ELb1EEC2B8ue170006ENS_18__default_init_tagE, symObjAddr: 0x15C4, symBinAddr: 0x100013094, symSize: 0x2C }
  - { offsetInCU: 0x15A72, offset: 0x3E2F3, size: 0x8, addend: 0x0, symName: __ZNSt3__19allocatorISt4byteEC2B8ue170006Ev, symObjAddr: 0x15F0, symBinAddr: 0x1000130C0, symSize: 0x2C }
  - { offsetInCU: 0x15A9C, offset: 0x3E31D, size: 0x8, addend: 0x0, symName: __ZNSt3__116__non_trivial_ifILb1ENS_9allocatorISt4byteEEEC2B8ue170006Ev, symObjAddr: 0x161C, symBinAddr: 0x1000130EC, symSize: 0x14 }
  - { offsetInCU: 0x15AC6, offset: 0x3E347, size: 0x8, addend: 0x0, symName: __ZNSt3__112basic_stringIcNS_11char_traitsIcEENS_9allocatorIcEEEC2B8ue170006Ev, symObjAddr: 0x1630, symBinAddr: 0x100013100, symSize: 0x48 }
  - { offsetInCU: 0x15AF0, offset: 0x3E371, size: 0x8, addend: 0x0, symName: __ZNKSt16initializer_listISt4byteE5beginB8ue170006Ev, symObjAddr: 0x16F0, symBinAddr: 0x100013148, symSize: 0x18 }
  - { offsetInCU: 0x15B16, offset: 0x3E397, size: 0x8, addend: 0x0, symName: __ZNKSt16initializer_listISt4byteE3endB8ue170006Ev, symObjAddr: 0x1708, symBinAddr: 0x100013160, symSize: 0x20 }
  - { offsetInCU: 0x15B46, offset: 0x3E3C7, size: 0x8, addend: 0x0, symName: __ZNSt3__116allocator_traitsINS_9allocatorIcEEE37select_on_container_copy_constructionB8ue170006IS2_vvEES2_RKS2_, symObjAddr: 0x177C, symBinAddr: 0x100013180, symSize: 0x10 }
  - { offsetInCU: 0x15B75, offset: 0x3E3F6, size: 0x8, addend: 0x0, symName: __ZNKSt3__112basic_stringIcNS_11char_traitsIcEENS_9allocatorIcEEE13get_allocatorB8ue170006Ev, symObjAddr: 0x178C, symBinAddr: 0x100013190, symSize: 0x24 }
  - { offsetInCU: 0x15B9B, offset: 0x3E41C, size: 0x8, addend: 0x0, symName: __ZNSt3__112basic_stringIcNS_11char_traitsIcEENS_9allocatorIcEEEC1B8ue170006ENS_24__uninitialized_size_tagEmRKS4_, symObjAddr: 0x17B0, symBinAddr: 0x1000131B4, symSize: 0x3C }
  - { offsetInCU: 0x15BEF, offset: 0x3E470, size: 0x8, addend: 0x0, symName: __ZNSt3__111char_traitsIcE4copyB8ue170006EPcPKcm, symObjAddr: 0x1854, symBinAddr: 0x1000131F0, symSize: 0x40 }
  - { offsetInCU: 0x15C2E, offset: 0x3E4AF, size: 0x8, addend: 0x0, symName: __ZNSt3__111char_traitsIcE6assignB8ue170006EPcmc, symObjAddr: 0x18BC, symBinAddr: 0x100013230, symSize: 0x44 }
  - { offsetInCU: 0x15C6D, offset: 0x3E4EE, size: 0x8, addend: 0x0, symName: __ZNKSt3__112basic_stringIcNS_11char_traitsIcEENS_9allocatorIcEEE7__allocB8ue170006Ev, symObjAddr: 0x19CC, symBinAddr: 0x100013274, symSize: 0x24 }
  - { offsetInCU: 0x15C93, offset: 0x3E514, size: 0x8, addend: 0x0, symName: __ZNKSt3__117__compressed_pairINS_12basic_stringIcNS_11char_traitsIcEENS_9allocatorIcEEE5__repES5_E6secondB8ue170006Ev, symObjAddr: 0x19F0, symBinAddr: 0x100013298, symSize: 0x24 }
  - { offsetInCU: 0x15CB9, offset: 0x3E53A, size: 0x8, addend: 0x0, symName: __ZNKSt3__122__compressed_pair_elemINS_9allocatorIcEELi1ELb1EE5__getB8ue170006Ev, symObjAddr: 0x1A14, symBinAddr: 0x1000132BC, symSize: 0x14 }
  - { offsetInCU: 0x15CDF, offset: 0x3E560, size: 0x8, addend: 0x0, symName: __ZNSt3__112basic_stringIcNS_11char_traitsIcEENS_9allocatorIcEEEC2B8ue170006ENS_24__uninitialized_size_tagEmRKS4_, symObjAddr: 0x1A28, symBinAddr: 0x1000132D0, symSize: 0x110 }
  - { offsetInCU: 0x15D5F, offset: 0x3E5E0, size: 0x8, addend: 0x0, symName: __ZNSt3__117__compressed_pairINS_12basic_stringIcNS_11char_traitsIcEENS_9allocatorIcEEE5__repES5_EC1B8ue170006INS_18__default_init_tagERKS5_EEOT_OT0_, symObjAddr: 0x1B38, symBinAddr: 0x1000133E0, symSize: 0x3C }
  - { offsetInCU: 0x15DB7, offset: 0x3E638, size: 0x8, addend: 0x0, symName: __ZNKSt3__112basic_stringIcNS_11char_traitsIcEENS_9allocatorIcEEE8max_sizeB8ue170006Ev, symObjAddr: 0x1B74, symBinAddr: 0x10001341C, symSize: 0xAC }
  - { offsetInCU: 0x15E09, offset: 0x3E68A, size: 0x8, addend: 0x0, symName: __ZNKSt3__112basic_stringIcNS_11char_traitsIcEENS_9allocatorIcEEE20__throw_length_errorB8ue170006Ev, symObjAddr: 0x1C20, symBinAddr: 0x1000134C8, symSize: 0x1C }
  - { offsetInCU: 0x15E2F, offset: 0x3E6B0, size: 0x8, addend: 0x0, symName: __ZNSt3__112basic_stringIcNS_11char_traitsIcEENS_9allocatorIcEEE13__fits_in_ssoB8ue170006Em, symObjAddr: 0x1C3C, symBinAddr: 0x1000134E4, symSize: 0x20 }
  - { offsetInCU: 0x15E53, offset: 0x3E6D4, size: 0x8, addend: 0x0, symName: __ZNSt3__112basic_stringIcNS_11char_traitsIcEENS_9allocatorIcEEE16__set_short_sizeB8ue170006Em, symObjAddr: 0x1C5C, symBinAddr: 0x100013504, symSize: 0x78 }
  - { offsetInCU: 0x15E88, offset: 0x3E709, size: 0x8, addend: 0x0, symName: __ZNSt3__112basic_stringIcNS_11char_traitsIcEENS_9allocatorIcEEE11__recommendB8ue170006Em, symObjAddr: 0x1CD4, symBinAddr: 0x10001357C, symSize: 0x84 }
  - { offsetInCU: 0x15EBB, offset: 0x3E73C, size: 0x8, addend: 0x0, symName: __ZNSt3__116allocator_traitsINS_9allocatorIcEEE8allocateB8ue170006ERS2_m, symObjAddr: 0x1D58, symBinAddr: 0x100013600, symSize: 0x2C }
  - { offsetInCU: 0x15EEE, offset: 0x3E76F, size: 0x8, addend: 0x0, symName: __ZNSt3__112basic_stringIcNS_11char_traitsIcEENS_9allocatorIcEEE7__allocB8ue170006Ev, symObjAddr: 0x1D84, symBinAddr: 0x10001362C, symSize: 0x24 }
  - { offsetInCU: 0x15F14, offset: 0x3E795, size: 0x8, addend: 0x0, symName: __ZNSt3__112basic_stringIcNS_11char_traitsIcEENS_9allocatorIcEEE16__begin_lifetimeB8ue170006EPcm, symObjAddr: 0x1DA8, symBinAddr: 0x100013650, symSize: 0x14 }
  - { offsetInCU: 0x15F47, offset: 0x3E7C8, size: 0x8, addend: 0x0, symName: __ZNSt3__112basic_stringIcNS_11char_traitsIcEENS_9allocatorIcEEE14__set_long_capB8ue170006Em, symObjAddr: 0x1DBC, symBinAddr: 0x100013664, symSize: 0x70 }
  - { offsetInCU: 0x15F7C, offset: 0x3E7FD, size: 0x8, addend: 0x0, symName: __ZNSt3__112basic_stringIcNS_11char_traitsIcEENS_9allocatorIcEEE18__set_long_pointerB8ue170006EPc, symObjAddr: 0x1E2C, symBinAddr: 0x1000136D4, symSize: 0x38 }
  - { offsetInCU: 0x15FB1, offset: 0x3E832, size: 0x8, addend: 0x0, symName: __ZNSt3__112basic_stringIcNS_11char_traitsIcEENS_9allocatorIcEEE15__set_long_sizeB8ue170006Em, symObjAddr: 0x1E64, symBinAddr: 0x10001370C, symSize: 0x38 }
  - { offsetInCU: 0x15FE6, offset: 0x3E867, size: 0x8, addend: 0x0, symName: __ZNSt3__117__compressed_pairINS_12basic_stringIcNS_11char_traitsIcEENS_9allocatorIcEEE5__repES5_EC2B8ue170006INS_18__default_init_tagERKS5_EEOT_OT0_, symObjAddr: 0x1E9C, symBinAddr: 0x100013744, symSize: 0x40 }
  - { offsetInCU: 0x1603E, offset: 0x3E8BF, size: 0x8, addend: 0x0, symName: __ZNSt3__122__compressed_pair_elemINS_9allocatorIcEELi1ELb1EEC2B8ue170006IRKS2_vEEOT_, symObjAddr: 0x1EDC, symBinAddr: 0x100013784, symSize: 0x18 }
  - { offsetInCU: 0x16080, offset: 0x3E901, size: 0x8, addend: 0x0, symName: __ZNSt3__116allocator_traitsINS_9allocatorIcEEE8max_sizeB8ue170006IS2_vEEmRKS2_, symObjAddr: 0x1EF4, symBinAddr: 0x10001379C, symSize: 0x24 }
  - { offsetInCU: 0x160AE, offset: 0x3E92F, size: 0x8, addend: 0x0, symName: __ZNSt3__114numeric_limitsImE3maxB8ue170006Ev, symObjAddr: 0x1F18, symBinAddr: 0x1000137C0, symSize: 0x14 }
  - { offsetInCU: 0x160C2, offset: 0x3E943, size: 0x8, addend: 0x0, symName: __ZNKSt3__19allocatorIcE8max_sizeB8ue170006Ev, symObjAddr: 0x1F2C, symBinAddr: 0x1000137D4, symSize: 0x14 }
  - { offsetInCU: 0x160E8, offset: 0x3E969, size: 0x8, addend: 0x0, symName: __ZNSt3__123__libcpp_numeric_limitsImLb1EE3maxB8ue170006Ev, symObjAddr: 0x1F40, symBinAddr: 0x1000137E8, symSize: 0x8 }
  - { offsetInCU: 0x160FC, offset: 0x3E97D, size: 0x8, addend: 0x0, symName: __ZNSt3__112basic_stringIcNS_11char_traitsIcEENS_9allocatorIcEEE10__align_itB8ue170006ILm16EEEmm, symObjAddr: 0x202C, symBinAddr: 0x1000137F0, symSize: 0x1C }
  - { offsetInCU: 0x1612A, offset: 0x3E9AB, size: 0x8, addend: 0x0, symName: __ZNSt3__19allocatorIcE8allocateB8ue170006Em, symObjAddr: 0x2048, symBinAddr: 0x10001380C, symSize: 0x58 }
  - { offsetInCU: 0x1615E, offset: 0x3E9DF, size: 0x8, addend: 0x0, symName: __ZNSt3__117__compressed_pairINS_12basic_stringIcNS_11char_traitsIcEENS_9allocatorIcEEE5__repES5_E6secondB8ue170006Ev, symObjAddr: 0x2184, symBinAddr: 0x100013864, symSize: 0x24 }
  - { offsetInCU: 0x16184, offset: 0x3EA05, size: 0x8, addend: 0x0, symName: __ZNSt3__122__compressed_pair_elemINS_9allocatorIcEELi1ELb1EE5__getB8ue170006Ev, symObjAddr: 0x21A8, symBinAddr: 0x100013888, symSize: 0x14 }
  - { offsetInCU: 0x161CE, offset: 0x3EA4F, size: 0x8, addend: 0x0, symName: __ZNKSt3__114__copy_trivialclB8ue170006IKccLi0EEENS_4pairIPT_PT0_EES5_S5_S7_, symObjAddr: 0x2440, symBinAddr: 0x100013ABC, symSize: 0x48 }
  - { offsetInCU: 0x16256, offset: 0x3EAD7, size: 0x8, addend: 0x0, symName: __ZNSt3__14pairIPKcS2_EC1B8ue170006IS2_S2_LPv0EEEOT_OT0_, symObjAddr: 0x25A8, symBinAddr: 0x100013C24, symSize: 0x3C }
  - { offsetInCU: 0x162B4, offset: 0x3EB35, size: 0x8, addend: 0x0, symName: __ZNSt3__14pairIPKcS2_EC2B8ue170006IS2_S2_LPv0EEEOT_OT0_, symObjAddr: 0x25E4, symBinAddr: 0x100013C60, symSize: 0x34 }
  - { offsetInCU: 0x16312, offset: 0x3EB93, size: 0x8, addend: 0x0, symName: __ZNSt3__118__unwrap_iter_implIPKcLb1EE8__unwrapB8ue170006ES2_, symObjAddr: 0x2618, symBinAddr: 0x100013C94, symSize: 0x24 }
  - { offsetInCU: 0x16340, offset: 0x3EBC1, size: 0x8, addend: 0x0, symName: __ZNSt3__14pairIPKcPcEC1B8ue170006IRS2_S3_LPv0EEEOT_OT0_, symObjAddr: 0x2764, symBinAddr: 0x100013DCC, symSize: 0x3C }
  - { offsetInCU: 0x1639E, offset: 0x3EC1F, size: 0x8, addend: 0x0, symName: __ZNSt3__14pairIPKcPcEC2B8ue170006IRS2_S3_LPv0EEEOT_OT0_, symObjAddr: 0x27A0, symBinAddr: 0x100013E08, symSize: 0x34 }
  - { offsetInCU: 0x163FC, offset: 0x3EC7D, size: 0x8, addend: 0x0, symName: __ZNSt3__118__unwrap_iter_implIPcLb1EE8__unwrapB8ue170006ES1_, symObjAddr: 0x27D4, symBinAddr: 0x100013E3C, symSize: 0x24 }
  - { offsetInCU: 0x1641F, offset: 0x3ECA0, size: 0x8, addend: 0x0, symName: __ZNSt3__14pairIPKcPcEC1B8ue170006IS2_S3_LPv0EEEOT_OT0_, symObjAddr: 0x27F8, symBinAddr: 0x100013E60, symSize: 0x3C }
  - { offsetInCU: 0x1647D, offset: 0x3ECFE, size: 0x8, addend: 0x0, symName: __ZNSt3__14pairIPKcPcEC2B8ue170006IS2_S3_LPv0EEEOT_OT0_, symObjAddr: 0x2834, symBinAddr: 0x100013E9C, symSize: 0x34 }
  - { offsetInCU: 0x164DB, offset: 0x3ED5C, size: 0x8, addend: 0x0, symName: __ZNSt3__118__unwrap_iter_implIPKcLb1EE8__rewrapB8ue170006ES2_S2_, symObjAddr: 0x28A4, symBinAddr: 0x100013F0C, symSize: 0x48 }
  - { offsetInCU: 0x1650C, offset: 0x3ED8D, size: 0x8, addend: 0x0, symName: __ZNSt3__118__unwrap_iter_implIPcLb1EE8__rewrapB8ue170006ES1_S1_, symObjAddr: 0x28EC, symBinAddr: 0x100013F54, symSize: 0x48 }
  - { offsetInCU: 0x1653D, offset: 0x3EDBE, size: 0x8, addend: 0x0, symName: __ZNSt3__112basic_stringIcNS_11char_traitsIcEENS_9allocatorIcEEE6appendB8ue170006ERKS5_, symObjAddr: 0x2AA8, symBinAddr: 0x100014058, symSize: 0x4C }
  - { offsetInCU: 0x16572, offset: 0x3EDF3, size: 0x8, addend: 0x0, symName: __ZNSt3__19basic_iosIcNS_11char_traitsIcEEEC2B8ue170006Ev, symObjAddr: 0x2B70, symBinAddr: 0x1000140A4, symSize: 0x44 }
  - { offsetInCU: 0x1659C, offset: 0x3EE1D, size: 0x8, addend: 0x0, symName: __ZNSt3__113basic_istreamIcNS_11char_traitsIcEEEC2B8ue170006EPNS_15basic_streambufIcS2_EE, symObjAddr: 0x2BB4, symBinAddr: 0x1000140E8, symSize: 0x64 }
  - { offsetInCU: 0x165E1, offset: 0x3EE62, size: 0x8, addend: 0x0, symName: __ZNSt3__113basic_filebufIcNS_11char_traitsIcEEE4openERKNS_12basic_stringIcS2_NS_9allocatorIcEEEEj, symObjAddr: 0x2C18, symBinAddr: 0x10001414C, symSize: 0x44 }
  - { offsetInCU: 0x16625, offset: 0x3EEA6, size: 0x8, addend: 0x0, symName: __ZNSt3__18ios_baseC2B8ue170006Ev, symObjAddr: 0x2C88, symBinAddr: 0x100014190, symSize: 0x24 }
  - { offsetInCU: 0x1664F, offset: 0x3EED0, size: 0x8, addend: 0x0, symName: __ZNSt3__19basic_iosIcNS_11char_traitsIcEEE4initB8ue170006EPNS_15basic_streambufIcS2_EE, symObjAddr: 0x2CAC, symBinAddr: 0x1000141B4, symSize: 0x44 }
  - { offsetInCU: 0x16686, offset: 0x3EF07, size: 0x8, addend: 0x0, symName: __ZNKSt3__112basic_stringIcNS_11char_traitsIcEENS_9allocatorIcEEE5c_strB8ue170006Ev, symObjAddr: 0x2CF8, symBinAddr: 0x1000141F8, symSize: 0x24 }
  - { offsetInCU: 0x166AC, offset: 0x3EF2D, size: 0x8, addend: 0x0, symName: __ZNKSt3__19basic_iosIcNS_11char_traitsIcEEE4failB8ue170006Ev, symObjAddr: 0x2D50, symBinAddr: 0x10001421C, symSize: 0x28 }
  - { offsetInCU: 0x166D2, offset: 0x3EF53, size: 0x8, addend: 0x0, symName: __ZNKSt3__18ios_base4failB8ue170006Ev, symObjAddr: 0x2D78, symBinAddr: 0x100014244, symSize: 0x28 }
  - { offsetInCU: 0x166FA, offset: 0x3EF7B, size: 0x8, addend: 0x0, symName: __ZNSt3__119istreambuf_iteratorIcNS_11char_traitsIcEEEC2B8ue170006ERNS_13basic_istreamIcS2_EE, symObjAddr: 0x2DA0, symBinAddr: 0x10001426C, symSize: 0x54 }
  - { offsetInCU: 0x16732, offset: 0x3EFB3, size: 0x8, addend: 0x0, symName: __ZNSt3__16vectorIcNS_9allocatorIcEEEC2INS_19istreambuf_iteratorIcNS_11char_traitsIcEEEELi0EEET_S9_, symObjAddr: 0x2E30, symBinAddr: 0x1000142C0, symSize: 0x6C }
  - { offsetInCU: 0x1678B, offset: 0x3F00C, size: 0x8, addend: 0x0, symName: __ZNSt3__117__compressed_pairIPcNS_9allocatorIcEEEC1B8ue170006IDnNS_18__default_init_tagEEEOT_OT0_, symObjAddr: 0x2E9C, symBinAddr: 0x10001432C, symSize: 0x3C }
  - { offsetInCU: 0x167E3, offset: 0x3F064, size: 0x8, addend: 0x0, symName: __ZNSt3__16vectorIcNS_9allocatorIcEEE20__init_with_sentinelB8ue170006INS_19istreambuf_iteratorIcNS_11char_traitsIcEEEES8_EEvT_T0_, symObjAddr: 0x2ED8, symBinAddr: 0x100014368, symSize: 0xD4 }
  - { offsetInCU: 0x16848, offset: 0x3F0C9, size: 0x8, addend: 0x0, symName: __ZNSt3__117__compressed_pairIPcNS_9allocatorIcEEEC2B8ue170006IDnNS_18__default_init_tagEEEOT_OT0_, symObjAddr: 0x2FAC, symBinAddr: 0x10001443C, symSize: 0x40 }
  - { offsetInCU: 0x168A0, offset: 0x3F121, size: 0x8, addend: 0x0, symName: __ZNSt3__122__compressed_pair_elemIPcLi0ELb0EEC2B8ue170006IDnvEEOT_, symObjAddr: 0x2FEC, symBinAddr: 0x10001447C, symSize: 0x1C }
  - { offsetInCU: 0x168E2, offset: 0x3F163, size: 0x8, addend: 0x0, symName: __ZNSt3__16vectorIcNS_9allocatorIcEEE16__destroy_vectorC1B8ue170006ERS3_, symObjAddr: 0x3048, symBinAddr: 0x1000144D8, symSize: 0x34 }
  - { offsetInCU: 0x16921, offset: 0x3F1A2, size: 0x8, addend: 0x0, symName: __ZNSt3__16vectorIcNS_9allocatorIcEEE12emplace_backIJcEEERcDpOT_, symObjAddr: 0x30B0, symBinAddr: 0x100014540, symSize: 0x74 }
  - { offsetInCU: 0x16963, offset: 0x3F1E4, size: 0x8, addend: 0x0, symName: __ZNKSt3__119istreambuf_iteratorIcNS_11char_traitsIcEEEdeB8ue170006Ev, symObjAddr: 0x3124, symBinAddr: 0x1000145B4, symSize: 0x2C }
  - { offsetInCU: 0x16989, offset: 0x3F20A, size: 0x8, addend: 0x0, symName: __ZNSt3__119istreambuf_iteratorIcNS_11char_traitsIcEEEppB8ue170006Ev, symObjAddr: 0x3150, symBinAddr: 0x1000145E0, symSize: 0x30 }
  - { offsetInCU: 0x169AF, offset: 0x3F230, size: 0x8, addend: 0x0, symName: __ZNSt3__128__exception_guard_exceptionsINS_6vectorIcNS_9allocatorIcEEE16__destroy_vectorEE10__completeB8ue170006Ev, symObjAddr: 0x3180, symBinAddr: 0x100014610, symSize: 0x1C }
  - { offsetInCU: 0x169D5, offset: 0x3F256, size: 0x8, addend: 0x0, symName: __ZNSt3__128__exception_guard_exceptionsINS_6vectorIcNS_9allocatorIcEEE16__destroy_vectorEED1B8ue170006Ev, symObjAddr: 0x319C, symBinAddr: 0x10001462C, symSize: 0x2C }
  - { offsetInCU: 0x169FF, offset: 0x3F280, size: 0x8, addend: 0x0, symName: __ZNSt3__128__exception_guard_exceptionsINS_6vectorIcNS_9allocatorIcEEE16__destroy_vectorEEC1B8ue170006ES5_, symObjAddr: 0x31C8, symBinAddr: 0x100014658, symSize: 0x34 }
  - { offsetInCU: 0x16A37, offset: 0x3F2B8, size: 0x8, addend: 0x0, symName: __ZNSt3__128__exception_guard_exceptionsINS_6vectorIcNS_9allocatorIcEEE16__destroy_vectorEEC2B8ue170006ES5_, symObjAddr: 0x31FC, symBinAddr: 0x10001468C, symSize: 0x24 }
  - { offsetInCU: 0x16A6F, offset: 0x3F2F0, size: 0x8, addend: 0x0, symName: __ZNSt3__16vectorIcNS_9allocatorIcEEE16__destroy_vectorC2B8ue170006ERS3_, symObjAddr: 0x3220, symBinAddr: 0x1000146B0, symSize: 0x20 }
  - { offsetInCU: 0x16AA8, offset: 0x3F329, size: 0x8, addend: 0x0, symName: __ZNKSt3__119istreambuf_iteratorIcNS_11char_traitsIcEEE5equalB8ue170006ERKS3_, symObjAddr: 0x3240, symBinAddr: 0x1000146D0, symSize: 0x4C }
  - { offsetInCU: 0x16ADC, offset: 0x3F35D, size: 0x8, addend: 0x0, symName: __ZNKSt3__119istreambuf_iteratorIcNS_11char_traitsIcEEE14__test_for_eofB8ue170006Ev, symObjAddr: 0x328C, symBinAddr: 0x10001471C, symSize: 0x80 }
  - { offsetInCU: 0x16B02, offset: 0x3F383, size: 0x8, addend: 0x0, symName: __ZNSt3__115basic_streambufIcNS_11char_traitsIcEEE5sgetcB8ue170006Ev, symObjAddr: 0x3334, symBinAddr: 0x10001479C, symSize: 0x70 }
  - { offsetInCU: 0x16B28, offset: 0x3F3A9, size: 0x8, addend: 0x0, symName: __ZNSt3__111char_traitsIcE11to_int_typeB8ue170006Ec, symObjAddr: 0x33A4, symBinAddr: 0x10001480C, symSize: 0x14 }
  - { offsetInCU: 0x16B4C, offset: 0x3F3CD, size: 0x8, addend: 0x0, symName: __ZNSt3__16vectorIcNS_9allocatorIcEEE9__end_capB8ue170006Ev, symObjAddr: 0x33B8, symBinAddr: 0x100014820, symSize: 0x28 }
  - { offsetInCU: 0x16B72, offset: 0x3F3F3, size: 0x8, addend: 0x0, symName: __ZNSt3__16vectorIcNS_9allocatorIcEEE22__construct_one_at_endB8ue170006IJcEEEvDpOT_, symObjAddr: 0x33E0, symBinAddr: 0x100014848, symSize: 0x90 }
  - { offsetInCU: 0x16BC1, offset: 0x3F442, size: 0x8, addend: 0x0, symName: __ZNSt3__16vectorIcNS_9allocatorIcEEE24__emplace_back_slow_pathIJcEEEvDpOT_, symObjAddr: 0x3470, symBinAddr: 0x1000148D8, symSize: 0xD8 }
  - { offsetInCU: 0x16C21, offset: 0x3F4A2, size: 0x8, addend: 0x0, symName: __ZNSt3__16vectorIcNS_9allocatorIcEEE4backB8ue170006Ev, symObjAddr: 0x3548, symBinAddr: 0x1000149B0, symSize: 0x1C }
  - { offsetInCU: 0x16C47, offset: 0x3F4C8, size: 0x8, addend: 0x0, symName: __ZNSt3__117__compressed_pairIPcNS_9allocatorIcEEE5firstB8ue170006Ev, symObjAddr: 0x3564, symBinAddr: 0x1000149CC, symSize: 0x24 }
  - { offsetInCU: 0x16C6D, offset: 0x3F4EE, size: 0x8, addend: 0x0, symName: __ZNSt3__122__compressed_pair_elemIPcLi0ELb0EE5__getB8ue170006Ev, symObjAddr: 0x3588, symBinAddr: 0x1000149F0, symSize: 0x14 }
  - { offsetInCU: 0x16CAC, offset: 0x3F52D, size: 0x8, addend: 0x0, symName: __ZNSt3__16vectorIcNS_9allocatorIcEEE21_ConstructTransactionC1B8ue170006ERS3_m, symObjAddr: 0x359C, symBinAddr: 0x100014A04, symSize: 0x3C }
  - { offsetInCU: 0x16CF4, offset: 0x3F575, size: 0x8, addend: 0x0, symName: __ZNSt3__116allocator_traitsINS_9allocatorIcEEE9constructB8ue170006IcJcEvEEvRS2_PT_DpOT0_, symObjAddr: 0x35D8, symBinAddr: 0x100014A40, symSize: 0x34 }
  - { offsetInCU: 0x16D4B, offset: 0x3F5CC, size: 0x8, addend: 0x0, symName: __ZNSt3__16vectorIcNS_9allocatorIcEEE7__allocB8ue170006Ev, symObjAddr: 0x360C, symBinAddr: 0x100014A74, symSize: 0x28 }
  - { offsetInCU: 0x16D71, offset: 0x3F5F2, size: 0x8, addend: 0x0, symName: __ZNSt3__16vectorIcNS_9allocatorIcEEE21_ConstructTransactionD1B8ue170006Ev, symObjAddr: 0x3634, symBinAddr: 0x100014A9C, symSize: 0x2C }
  - { offsetInCU: 0x16D9B, offset: 0x3F61C, size: 0x8, addend: 0x0, symName: __ZNSt3__16vectorIcNS_9allocatorIcEEE21_ConstructTransactionC2B8ue170006ERS3_m, symObjAddr: 0x3660, symBinAddr: 0x100014AC8, symSize: 0x44 }
  - { offsetInCU: 0x16DE3, offset: 0x3F664, size: 0x8, addend: 0x0, symName: __ZNSt3__19allocatorIcE9constructB8ue170006IcJcEEEvPT_DpOT0_, symObjAddr: 0x36A4, symBinAddr: 0x100014B0C, symSize: 0x28 }
  - { offsetInCU: 0x16E39, offset: 0x3F6BA, size: 0x8, addend: 0x0, symName: __ZNSt3__117__compressed_pairIPcNS_9allocatorIcEEE6secondB8ue170006Ev, symObjAddr: 0x36CC, symBinAddr: 0x100014B34, symSize: 0x24 }
  - { offsetInCU: 0x16E5F, offset: 0x3F6E0, size: 0x8, addend: 0x0, symName: __ZNSt3__16vectorIcNS_9allocatorIcEEE21_ConstructTransactionD2B8ue170006Ev, symObjAddr: 0x36F0, symBinAddr: 0x100014B58, symSize: 0x20 }
  - { offsetInCU: 0x16E89, offset: 0x3F70A, size: 0x8, addend: 0x0, symName: __ZNKSt3__16vectorIcNS_9allocatorIcEEE11__recommendB8ue170006Em, symObjAddr: 0x3710, symBinAddr: 0x100014B78, symSize: 0xB4 }
  - { offsetInCU: 0x16EDE, offset: 0x3F75F, size: 0x8, addend: 0x0, symName: __ZNSt3__114__split_bufferIcRNS_9allocatorIcEEEC1EmmS3_, symObjAddr: 0x37C4, symBinAddr: 0x100014C2C, symSize: 0x44 }
  - { offsetInCU: 0x16F34, offset: 0x3F7B5, size: 0x8, addend: 0x0, symName: __ZNSt3__114__split_bufferIcRNS_9allocatorIcEEED1Ev, symObjAddr: 0x3918, symBinAddr: 0x100014D80, symSize: 0x2C }
  - { offsetInCU: 0x16F60, offset: 0x3F7E1, size: 0x8, addend: 0x0, symName: __ZNKSt3__16vectorIcNS_9allocatorIcEEE8max_sizeEv, symObjAddr: 0x3944, symBinAddr: 0x100014DAC, symSize: 0x60 }
  - { offsetInCU: 0x16F88, offset: 0x3F809, size: 0x8, addend: 0x0, symName: __ZNKSt3__16vectorIcNS_9allocatorIcEEE20__throw_length_errorB8ue170006Ev, symObjAddr: 0x39A4, symBinAddr: 0x100014E0C, symSize: 0x1C }
  - { offsetInCU: 0x16FAE, offset: 0x3F82F, size: 0x8, addend: 0x0, symName: __ZNKSt3__16vectorIcNS_9allocatorIcEEE8capacityB8ue170006Ev, symObjAddr: 0x39C0, symBinAddr: 0x100014E28, symSize: 0x38 }
  - { offsetInCU: 0x16FD4, offset: 0x3F855, size: 0x8, addend: 0x0, symName: __ZNKSt3__16vectorIcNS_9allocatorIcEEE7__allocB8ue170006Ev, symObjAddr: 0x3A50, symBinAddr: 0x100014E60, symSize: 0x28 }
  - { offsetInCU: 0x16FFA, offset: 0x3F87B, size: 0x8, addend: 0x0, symName: __ZNKSt3__117__compressed_pairIPcNS_9allocatorIcEEE6secondB8ue170006Ev, symObjAddr: 0x3B14, symBinAddr: 0x100014E88, symSize: 0x24 }
  - { offsetInCU: 0x17020, offset: 0x3F8A1, size: 0x8, addend: 0x0, symName: __ZNKSt3__16vectorIcNS_9allocatorIcEEE9__end_capB8ue170006Ev, symObjAddr: 0x3B40, symBinAddr: 0x100014EAC, symSize: 0x28 }
  - { offsetInCU: 0x17046, offset: 0x3F8C7, size: 0x8, addend: 0x0, symName: __ZNKSt3__117__compressed_pairIPcNS_9allocatorIcEEE5firstB8ue170006Ev, symObjAddr: 0x3B68, symBinAddr: 0x100014ED4, symSize: 0x24 }
  - { offsetInCU: 0x1706C, offset: 0x3F8ED, size: 0x8, addend: 0x0, symName: __ZNKSt3__122__compressed_pair_elemIPcLi0ELb0EE5__getB8ue170006Ev, symObjAddr: 0x3B8C, symBinAddr: 0x100014EF8, symSize: 0x14 }
  - { offsetInCU: 0x17092, offset: 0x3F913, size: 0x8, addend: 0x0, symName: __ZNSt3__114__split_bufferIcRNS_9allocatorIcEEEC2EmmS3_, symObjAddr: 0x3BF4, symBinAddr: 0x100014F0C, symSize: 0xD4 }
  - { offsetInCU: 0x17105, offset: 0x3F986, size: 0x8, addend: 0x0, symName: __ZNSt3__117__compressed_pairIPcRNS_9allocatorIcEEEC1B8ue170006IDnS4_EEOT_OT0_, symObjAddr: 0x3CC8, symBinAddr: 0x100014FE0, symSize: 0x3C }
  - { offsetInCU: 0x1715D, offset: 0x3F9DE, size: 0x8, addend: 0x0, symName: __ZNSt3__114__split_bufferIcRNS_9allocatorIcEEE7__allocB8ue170006Ev, symObjAddr: 0x3D44, symBinAddr: 0x10001505C, symSize: 0x28 }
  - { offsetInCU: 0x17183, offset: 0x3FA04, size: 0x8, addend: 0x0, symName: __ZNSt3__114__split_bufferIcRNS_9allocatorIcEEE9__end_capB8ue170006Ev, symObjAddr: 0x3D6C, symBinAddr: 0x100015084, symSize: 0x28 }
  - { offsetInCU: 0x171A9, offset: 0x3FA2A, size: 0x8, addend: 0x0, symName: __ZNSt3__117__compressed_pairIPcRNS_9allocatorIcEEEC2B8ue170006IDnS4_EEOT_OT0_, symObjAddr: 0x3D94, symBinAddr: 0x1000150AC, symSize: 0x48 }
  - { offsetInCU: 0x17201, offset: 0x3FA82, size: 0x8, addend: 0x0, symName: __ZNSt3__122__compressed_pair_elemIRNS_9allocatorIcEELi1ELb0EEC2B8ue170006IS3_vEEOT_, symObjAddr: 0x3DDC, symBinAddr: 0x1000150F4, symSize: 0x20 }
  - { offsetInCU: 0x17243, offset: 0x3FAC4, size: 0x8, addend: 0x0, symName: __ZNSt3__117__compressed_pairIPcRNS_9allocatorIcEEE6secondB8ue170006Ev, symObjAddr: 0x3DFC, symBinAddr: 0x100015114, symSize: 0x28 }
  - { offsetInCU: 0x17269, offset: 0x3FAEA, size: 0x8, addend: 0x0, symName: __ZNSt3__122__compressed_pair_elemIRNS_9allocatorIcEELi1ELb0EE5__getB8ue170006Ev, symObjAddr: 0x3E24, symBinAddr: 0x10001513C, symSize: 0x18 }
  - { offsetInCU: 0x1728F, offset: 0x3FB10, size: 0x8, addend: 0x0, symName: __ZNSt3__117__compressed_pairIPcRNS_9allocatorIcEEE5firstB8ue170006Ev, symObjAddr: 0x3E3C, symBinAddr: 0x100015154, symSize: 0x24 }
  - { offsetInCU: 0x172B5, offset: 0x3FB36, size: 0x8, addend: 0x0, symName: __ZNKSt3__16vectorIcNS_9allocatorIcEEE17__annotate_deleteB8ue170006Ev, symObjAddr: 0x3E60, symBinAddr: 0x100015178, symSize: 0xB8 }
  - { offsetInCU: 0x172DB, offset: 0x3FB5C, size: 0x8, addend: 0x0, symName: __ZNSt3__116reverse_iteratorIPcEC1B8ue170006ES1_, symObjAddr: 0x3F90, symBinAddr: 0x1000152A8, symSize: 0x34 }
  - { offsetInCU: 0x17313, offset: 0x3FB94, size: 0x8, addend: 0x0, symName: __ZNKSt3__116reverse_iteratorIPcE4baseB8ue170006Ev, symObjAddr: 0x3FC4, symBinAddr: 0x1000152DC, symSize: 0x18 }
  - { offsetInCU: 0x17339, offset: 0x3FBBA, size: 0x8, addend: 0x0, symName: __ZNKSt3__16vectorIcNS_9allocatorIcEEE14__annotate_newB8ue170006Em, symObjAddr: 0x4018, symBinAddr: 0x100015330, symSize: 0xAC }
  - { offsetInCU: 0x1736E, offset: 0x3FBEF, size: 0x8, addend: 0x0, symName: __ZNKSt3__16vectorIcNS_9allocatorIcEEE31__annotate_contiguous_containerB8ue170006EPKvS5_S5_S5_, symObjAddr: 0x40C4, symBinAddr: 0x1000153DC, symSize: 0x20 }
  - { offsetInCU: 0x173C4, offset: 0x3FC45, size: 0x8, addend: 0x0, symName: __ZNKSt3__16vectorIcNS_9allocatorIcEEE4dataB8ue170006Ev, symObjAddr: 0x40E4, symBinAddr: 0x1000153FC, symSize: 0x28 }
  - { offsetInCU: 0x1740E, offset: 0x3FC8F, size: 0x8, addend: 0x0, symName: __ZNKSt3__111__move_loopINS_17_ClassicAlgPolicyEEclB8ue170006INS_16reverse_iteratorIPcEES6_S6_EENS_4pairIT_T1_EES8_T0_S9_, symObjAddr: 0x43FC, symBinAddr: 0x100015714, symSize: 0xA0 }
  - { offsetInCU: 0x17479, offset: 0x3FCFA, size: 0x8, addend: 0x0, symName: __ZNSt3__18_IterOpsINS_17_ClassicAlgPolicyEE11__iter_moveB8ue170006IRNS_16reverse_iteratorIPcEEEENS_9enable_ifIXsr12is_referenceIDTdeclsr3stdE7declvalIRT_EEEEE5valueEDTclsr3stdE4movedeclsr3stdE7declvalISA_EEEEE4typeEOS9_, symObjAddr: 0x4630, symBinAddr: 0x100015948, symSize: 0x28 }
  - { offsetInCU: 0x174A5, offset: 0x3FD26, size: 0x8, addend: 0x0, symName: __ZNKSt3__116reverse_iteratorIPcEdeB8ue170006Ev, symObjAddr: 0x4658, symBinAddr: 0x100015970, symSize: 0x28 }
  - { offsetInCU: 0x174D9, offset: 0x3FD5A, size: 0x8, addend: 0x0, symName: __ZNSt3__116reverse_iteratorIPcEppB8ue170006Ev, symObjAddr: 0x4680, symBinAddr: 0x100015998, symSize: 0x20 }
  - { offsetInCU: 0x174FF, offset: 0x3FD80, size: 0x8, addend: 0x0, symName: __ZNSt3__18_IterOpsINS_17_ClassicAlgPolicyEE25__validate_iter_referenceB8ue170006IRNS_16reverse_iteratorIPcEEEEvv, symObjAddr: 0x46A0, symBinAddr: 0x1000159B8, symSize: 0x4 }
  - { offsetInCU: 0x1751D, offset: 0x3FD9E, size: 0x8, addend: 0x0, symName: __ZNSt3__118__unwrap_iter_implINS_16reverse_iteratorIPcEELb0EE8__unwrapB8ue170006ES3_, symObjAddr: 0x46A4, symBinAddr: 0x1000159BC, symSize: 0x24 }
  - { offsetInCU: 0x17546, offset: 0x3FDC7, size: 0x8, addend: 0x0, symName: __ZNSt3__14pairINS_16reverse_iteratorIPcEES3_EC1B8ue170006IS3_S3_LPv0EEEOT_OT0_, symObjAddr: 0x46C8, symBinAddr: 0x1000159E0, symSize: 0x3C }
  - { offsetInCU: 0x175A4, offset: 0x3FE25, size: 0x8, addend: 0x0, symName: __ZNSt3__14pairINS_16reverse_iteratorIPcEES3_EC2B8ue170006IS3_S3_LPv0EEEOT_OT0_, symObjAddr: 0x4704, symBinAddr: 0x100015A1C, symSize: 0x34 }
  - { offsetInCU: 0x17602, offset: 0x3FE83, size: 0x8, addend: 0x0, symName: __ZNSt3__118__unwrap_iter_implINS_16reverse_iteratorIPcEELb0EE8__rewrapB8ue170006ES3_S3_, symObjAddr: 0x4738, symBinAddr: 0x100015A50, symSize: 0x2C }
  - { offsetInCU: 0x17630, offset: 0x3FEB1, size: 0x8, addend: 0x0, symName: __ZNSt3__116reverse_iteratorIPcEC2B8ue170006ES1_, symObjAddr: 0x4764, symBinAddr: 0x100015A7C, symSize: 0x28 }
  - { offsetInCU: 0x17668, offset: 0x3FEE9, size: 0x8, addend: 0x0, symName: __ZNSt3__114__split_bufferIcRNS_9allocatorIcEEED2Ev, symObjAddr: 0x478C, symBinAddr: 0x100015AA4, symSize: 0x8C }
  - { offsetInCU: 0x17694, offset: 0x3FF15, size: 0x8, addend: 0x0, symName: __ZNSt3__114__split_bufferIcRNS_9allocatorIcEEE5clearB8ue170006Ev, symObjAddr: 0x4818, symBinAddr: 0x100015B30, symSize: 0x28 }
  - { offsetInCU: 0x176BA, offset: 0x3FF3B, size: 0x8, addend: 0x0, symName: __ZNSt3__116allocator_traitsINS_9allocatorIcEEE10deallocateB8ue170006ERS2_Pcm, symObjAddr: 0x4840, symBinAddr: 0x100015B58, symSize: 0x34 }
  - { offsetInCU: 0x176FC, offset: 0x3FF7D, size: 0x8, addend: 0x0, symName: __ZNKSt3__114__split_bufferIcRNS_9allocatorIcEEE8capacityB8ue170006Ev, symObjAddr: 0x4874, symBinAddr: 0x100015B8C, symSize: 0x38 }
  - { offsetInCU: 0x17722, offset: 0x3FFA3, size: 0x8, addend: 0x0, symName: __ZNSt3__114__split_bufferIcRNS_9allocatorIcEEE17__destruct_at_endB8ue170006EPc, symObjAddr: 0x48AC, symBinAddr: 0x100015BC4, symSize: 0x2C }
  - { offsetInCU: 0x17756, offset: 0x3FFD7, size: 0x8, addend: 0x0, symName: __ZNSt3__114__split_bufferIcRNS_9allocatorIcEEE17__destruct_at_endB8ue170006EPcNS_17integral_constantIbLb0EEE, symObjAddr: 0x48D8, symBinAddr: 0x100015BF0, symSize: 0x80 }
  - { offsetInCU: 0x17797, offset: 0x40018, size: 0x8, addend: 0x0, symName: __ZNSt3__116allocator_traitsINS_9allocatorIcEEE7destroyB8ue170006IcvEEvRS2_PT_, symObjAddr: 0x4958, symBinAddr: 0x100015C70, symSize: 0x2C }
  - { offsetInCU: 0x177D4, offset: 0x40055, size: 0x8, addend: 0x0, symName: __ZNSt3__19allocatorIcE7destroyB8ue170006EPc, symObjAddr: 0x4984, symBinAddr: 0x100015C9C, symSize: 0x14 }
  - { offsetInCU: 0x17808, offset: 0x40089, size: 0x8, addend: 0x0, symName: __ZNSt3__19allocatorIcE10deallocateB8ue170006EPcm, symObjAddr: 0x4998, symBinAddr: 0x100015CB0, symSize: 0x40 }
  - { offsetInCU: 0x1784A, offset: 0x400CB, size: 0x8, addend: 0x0, symName: __ZNKSt3__114__split_bufferIcRNS_9allocatorIcEEE9__end_capB8ue170006Ev, symObjAddr: 0x49D8, symBinAddr: 0x100015CF0, symSize: 0x28 }
  - { offsetInCU: 0x17870, offset: 0x400F1, size: 0x8, addend: 0x0, symName: __ZNKSt3__117__compressed_pairIPcRNS_9allocatorIcEEE5firstB8ue170006Ev, symObjAddr: 0x4A00, symBinAddr: 0x100015D18, symSize: 0x24 }
  - { offsetInCU: 0x17896, offset: 0x40117, size: 0x8, addend: 0x0, symName: __ZNSt3__115basic_streambufIcNS_11char_traitsIcEEE6sbumpcB8ue170006Ev, symObjAddr: 0x4A24, symBinAddr: 0x100015D3C, symSize: 0x78 }
  - { offsetInCU: 0x178BC, offset: 0x4013D, size: 0x8, addend: 0x0, symName: __ZNSt3__128__exception_guard_exceptionsINS_6vectorIcNS_9allocatorIcEEE16__destroy_vectorEED2B8ue170006Ev, symObjAddr: 0x4A9C, symBinAddr: 0x100015DB4, symSize: 0x50 }
  - { offsetInCU: 0x178E6, offset: 0x40167, size: 0x8, addend: 0x0, symName: __ZNSt3__16vectorIcNS_9allocatorIcEEE16__destroy_vectorclB8ue170006Ev, symObjAddr: 0x4AEC, symBinAddr: 0x100015E04, symSize: 0x90 }
  - { offsetInCU: 0x1790C, offset: 0x4018D, size: 0x8, addend: 0x0, symName: __ZNSt3__16vectorIcNS_9allocatorIcEEE7__clearB8ue170006Ev, symObjAddr: 0x4B7C, symBinAddr: 0x100015E94, symSize: 0x28 }
  - { offsetInCU: 0x17932, offset: 0x401B3, size: 0x8, addend: 0x0, symName: __ZNSt3__16vectorIcNS_9allocatorIcEEE22__base_destruct_at_endB8ue170006EPc, symObjAddr: 0x4BA4, symBinAddr: 0x100015EBC, symSize: 0x8C }
  - { offsetInCU: 0x17976, offset: 0x401F7, size: 0x8, addend: 0x0, symName: __ZNSt3__16vectorIcNS_9allocatorIcEEED2B8ue170006Ev, symObjAddr: 0x4C30, symBinAddr: 0x100015F48, symSize: 0x40 }
  - { offsetInCU: 0x179A0, offset: 0x40221, size: 0x8, addend: 0x0, symName: __ZNSt3__16vectorISt4byteNS_9allocatorIS1_EEE18__assign_with_sizeB8ue170006IPKS1_S7_EEvT_T0_l, symObjAddr: 0x4C70, symBinAddr: 0x100015F88, symSize: 0x164 }
  - { offsetInCU: 0x17A50, offset: 0x402D1, size: 0x8, addend: 0x0, symName: __ZNSt3__16vectorISt4byteNS_9allocatorIS1_EEE18__construct_at_endIPKS1_S7_EEvT_T0_m, symObjAddr: 0x4E74, symBinAddr: 0x10001618C, symSize: 0x8C }
  - { offsetInCU: 0x17AC6, offset: 0x40347, size: 0x8, addend: 0x0, symName: __ZNSt3__16vectorISt4byteNS_9allocatorIS1_EEE17__destruct_at_endB8ue170006EPS1_, symObjAddr: 0x4F44, symBinAddr: 0x10001625C, symSize: 0x4C }
  - { offsetInCU: 0x17B0A, offset: 0x4038B, size: 0x8, addend: 0x0, symName: __ZNSt3__16vectorISt4byteNS_9allocatorIS1_EEE13__vdeallocateEv, symObjAddr: 0x4F90, symBinAddr: 0x1000162A8, symSize: 0x94 }
  - { offsetInCU: 0x17B32, offset: 0x403B3, size: 0x8, addend: 0x0, symName: __ZNSt3__16vectorISt4byteNS_9allocatorIS1_EEE11__vallocateB8ue170006Em, symObjAddr: 0x5024, symBinAddr: 0x10001633C, symSize: 0xAC }
  - { offsetInCU: 0x17B76, offset: 0x403F7, size: 0x8, addend: 0x0, symName: __ZNKSt3__16vectorISt4byteNS_9allocatorIS1_EEE11__recommendB8ue170006Em, symObjAddr: 0x50D0, symBinAddr: 0x1000163E8, symSize: 0xB4 }
  - { offsetInCU: 0x17BE4, offset: 0x40465, size: 0x8, addend: 0x0, symName: __ZNSt3__16vectorISt4byteNS_9allocatorIS1_EEE21_ConstructTransactionC1B8ue170006ERS4_m, symObjAddr: 0x51F8, symBinAddr: 0x100016510, symSize: 0x3C }
  - { offsetInCU: 0x17C2C, offset: 0x404AD, size: 0x8, addend: 0x0, symName: __ZNSt3__16vectorISt4byteNS_9allocatorIS1_EEE21_ConstructTransactionD1B8ue170006Ev, symObjAddr: 0x52B4, symBinAddr: 0x1000165CC, symSize: 0x2C }
  - { offsetInCU: 0x17C56, offset: 0x404D7, size: 0x8, addend: 0x0, symName: __ZNSt3__16vectorISt4byteNS_9allocatorIS1_EEE21_ConstructTransactionC2B8ue170006ERS4_m, symObjAddr: 0x52E0, symBinAddr: 0x1000165F8, symSize: 0x44 }
  - { offsetInCU: 0x17CBE, offset: 0x4053F, size: 0x8, addend: 0x0, symName: __ZNSt3__14pairIPKSt4byteS3_EC1B8ue170006IS3_S3_LPv0EEEOT_OT0_, symObjAddr: 0x5478, symBinAddr: 0x100016790, symSize: 0x3C }
  - { offsetInCU: 0x17D1C, offset: 0x4059D, size: 0x8, addend: 0x0, symName: __ZNSt3__14pairIPKSt4byteS3_EC2B8ue170006IS3_S3_LPv0EEEOT_OT0_, symObjAddr: 0x54B4, symBinAddr: 0x1000167CC, symSize: 0x34 }
  - { offsetInCU: 0x17D7A, offset: 0x405FB, size: 0x8, addend: 0x0, symName: __ZNSt3__118__unwrap_iter_implIPKSt4byteLb1EE8__unwrapB8ue170006ES3_, symObjAddr: 0x54E8, symBinAddr: 0x100016800, symSize: 0x24 }
  - { offsetInCU: 0x17D9D, offset: 0x4061E, size: 0x8, addend: 0x0, symName: __ZNSt3__118__unwrap_iter_implIPSt4byteLb1EE8__unwrapB8ue170006ES2_, symObjAddr: 0x5520, symBinAddr: 0x100016838, symSize: 0x24 }
  - { offsetInCU: 0x17DC0, offset: 0x40641, size: 0x8, addend: 0x0, symName: __ZNSt3__118__unwrap_iter_implIPSt4byteLb1EE8__rewrapB8ue170006ES2_S2_, symObjAddr: 0x5544, symBinAddr: 0x10001685C, symSize: 0x48 }
  - { offsetInCU: 0x17DF1, offset: 0x40672, size: 0x8, addend: 0x0, symName: __ZNSt3__16vectorISt4byteNS_9allocatorIS1_EEE21_ConstructTransactionD2B8ue170006Ev, symObjAddr: 0x558C, symBinAddr: 0x1000168A4, symSize: 0x20 }
  - { offsetInCU: 0x17E35, offset: 0x406B6, size: 0x8, addend: 0x0, symName: __ZNKSt3__114__copy_trivialclB8ue170006IKSt4byteS2_Li0EEENS_4pairIPT_PT0_EES6_S6_S8_, symObjAddr: 0x56A4, symBinAddr: 0x1000169BC, symSize: 0x48 }
  - { offsetInCU: 0x17EA8, offset: 0x40729, size: 0x8, addend: 0x0, symName: __ZNSt3__14pairIPKSt4bytePS1_EC1B8ue170006IRS3_S4_LPv0EEEOT_OT0_, symObjAddr: 0x5864, symBinAddr: 0x100016B7C, symSize: 0x3C }
  - { offsetInCU: 0x17F06, offset: 0x40787, size: 0x8, addend: 0x0, symName: __ZNSt3__14pairIPKSt4bytePS1_EC2B8ue170006IRS3_S4_LPv0EEEOT_OT0_, symObjAddr: 0x58A0, symBinAddr: 0x100016BB8, symSize: 0x34 }
  - { offsetInCU: 0x17F64, offset: 0x407E5, size: 0x8, addend: 0x0, symName: __ZNSt3__14pairIPKSt4bytePS1_EC1B8ue170006IS3_S4_LPv0EEEOT_OT0_, symObjAddr: 0x58D4, symBinAddr: 0x100016BEC, symSize: 0x3C }
  - { offsetInCU: 0x17FC2, offset: 0x40843, size: 0x8, addend: 0x0, symName: __ZNSt3__14pairIPKSt4bytePS1_EC2B8ue170006IS3_S4_LPv0EEEOT_OT0_, symObjAddr: 0x5910, symBinAddr: 0x100016C28, symSize: 0x34 }
  - { offsetInCU: 0x18020, offset: 0x408A1, size: 0x8, addend: 0x0, symName: __ZNSt3__118__unwrap_iter_implIPKSt4byteLb1EE8__rewrapB8ue170006ES3_S3_, symObjAddr: 0x5980, symBinAddr: 0x100016C98, symSize: 0x48 }
  - { offsetInCU: 0x18051, offset: 0x408D2, size: 0x8, addend: 0x0, symName: __ZNKSt3__16vectorISt4byteNS_9allocatorIS1_EEE17__annotate_shrinkB8ue170006Em, symObjAddr: 0x59C8, symBinAddr: 0x100016CE0, symSize: 0xB4 }
  - { offsetInCU: 0x18086, offset: 0x40907, size: 0x8, addend: 0x0, symName: __ZNSt3__16vectorISt4byteNS_9allocatorIS1_EEE5clearB8ue170006Ev, symObjAddr: 0x5A7C, symBinAddr: 0x100016D94, symSize: 0x44 }
  - { offsetInCU: 0x180BB, offset: 0x4093C, size: 0x8, addend: 0x0, symName: __ZNSt3__16vectorISt4byteNS_9allocatorIS1_EEE9__end_capB8ue170006Ev, symObjAddr: 0x5AC0, symBinAddr: 0x100016DD8, symSize: 0x28 }
  - { offsetInCU: 0x180E1, offset: 0x40962, size: 0x8, addend: 0x0, symName: __ZNSt3__117__compressed_pairIPSt4byteNS_9allocatorIS1_EEE5firstB8ue170006Ev, symObjAddr: 0x5AE8, symBinAddr: 0x100016E00, symSize: 0x24 }
  - { offsetInCU: 0x18107, offset: 0x40988, size: 0x8, addend: 0x0, symName: __ZNSt3__122__compressed_pair_elemIPSt4byteLi0ELb0EE5__getB8ue170006Ev, symObjAddr: 0x5B0C, symBinAddr: 0x100016E24, symSize: 0x14 }
  - { offsetInCU: 0x1812D, offset: 0x409AE, size: 0x8, addend: 0x0, symName: __ZNKSt3__16vectorISt4byteNS_9allocatorIS1_EEE8max_sizeEv, symObjAddr: 0x5B20, symBinAddr: 0x100016E38, symSize: 0x60 }
  - { offsetInCU: 0x18155, offset: 0x409D6, size: 0x8, addend: 0x0, symName: __ZNKSt3__16vectorISt4byteNS_9allocatorIS1_EEE20__throw_length_errorB8ue170006Ev, symObjAddr: 0x5B80, symBinAddr: 0x100016E98, symSize: 0x1C }
  - { offsetInCU: 0x1817B, offset: 0x409FC, size: 0x8, addend: 0x0, symName: __ZNKSt3__16vectorISt4byteNS_9allocatorIS1_EEE14__annotate_newB8ue170006Em, symObjAddr: 0x5BDC, symBinAddr: 0x100016EF4, symSize: 0xAC }
  - { offsetInCU: 0x181BA, offset: 0x40A3B, size: 0x8, addend: 0x0, symName: __ZNSt3__116allocator_traitsINS_9allocatorISt4byteEEE8max_sizeB8ue170006IS3_vEEmRKS3_, symObjAddr: 0x5C88, symBinAddr: 0x100016FA0, symSize: 0x24 }
  - { offsetInCU: 0x181E8, offset: 0x40A69, size: 0x8, addend: 0x0, symName: __ZNKSt3__16vectorISt4byteNS_9allocatorIS1_EEE7__allocB8ue170006Ev, symObjAddr: 0x5CAC, symBinAddr: 0x100016FC4, symSize: 0x28 }
  - { offsetInCU: 0x1820E, offset: 0x40A8F, size: 0x8, addend: 0x0, symName: __ZNKSt3__19allocatorISt4byteE8max_sizeB8ue170006Ev, symObjAddr: 0x5CD4, symBinAddr: 0x100016FEC, symSize: 0x14 }
  - { offsetInCU: 0x18234, offset: 0x40AB5, size: 0x8, addend: 0x0, symName: __ZNKSt3__117__compressed_pairIPSt4byteNS_9allocatorIS1_EEE6secondB8ue170006Ev, symObjAddr: 0x5CE8, symBinAddr: 0x100017000, symSize: 0x24 }
  - { offsetInCU: 0x1825A, offset: 0x40ADB, size: 0x8, addend: 0x0, symName: __ZNKSt3__122__compressed_pair_elemINS_9allocatorISt4byteEELi1ELb1EE5__getB8ue170006Ev, symObjAddr: 0x5D0C, symBinAddr: 0x100017024, symSize: 0x14 }
  - { offsetInCU: 0x18280, offset: 0x40B01, size: 0x8, addend: 0x0, symName: __ZNSt3__19allocatorISt4byteE8allocateB8ue170006Em, symObjAddr: 0x5D20, symBinAddr: 0x100017038, symSize: 0x58 }
  - { offsetInCU: 0x182B4, offset: 0x40B35, size: 0x8, addend: 0x0, symName: __ZNSt3__16vectorISt4byteNS_9allocatorIS1_EEEC2ERKS4_, symObjAddr: 0x5D98, symBinAddr: 0x1000170B0, symSize: 0x94 }
  - { offsetInCU: 0x182EF, offset: 0x40B70, size: 0x8, addend: 0x0, symName: __ZNSt3__116allocator_traitsINS_9allocatorISt4byteEEE37select_on_container_copy_constructionB8ue170006IS3_vvEES3_RKS3_, symObjAddr: 0x5E2C, symBinAddr: 0x100017144, symSize: 0x10 }
  - { offsetInCU: 0x18324, offset: 0x40BA5, size: 0x8, addend: 0x0, symName: __ZNSt3__117__compressed_pairIPSt4byteNS_9allocatorIS1_EEEC1B8ue170006IDnS4_EEOT_OT0_, symObjAddr: 0x5E3C, symBinAddr: 0x100017154, symSize: 0x3C }
  - { offsetInCU: 0x1837C, offset: 0x40BFD, size: 0x8, addend: 0x0, symName: __ZNSt3__16vectorISt4byteNS_9allocatorIS1_EEE16__init_with_sizeB8ue170006IPS1_S6_EEvT_T0_m, symObjAddr: 0x5E78, symBinAddr: 0x100017190, symSize: 0xB8 }
  - { offsetInCU: 0x183F0, offset: 0x40C71, size: 0x8, addend: 0x0, symName: __ZNSt3__117__compressed_pairIPSt4byteNS_9allocatorIS1_EEEC2B8ue170006IDnS4_EEOT_OT0_, symObjAddr: 0x5F30, symBinAddr: 0x100017248, symSize: 0x44 }
  - { offsetInCU: 0x18448, offset: 0x40CC9, size: 0x8, addend: 0x0, symName: __ZNSt3__122__compressed_pair_elemINS_9allocatorISt4byteEELi1ELb1EEC2B8ue170006IS3_vEEOT_, symObjAddr: 0x5F74, symBinAddr: 0x10001728C, symSize: 0x18 }
  - { offsetInCU: 0x1848A, offset: 0x40D0B, size: 0x8, addend: 0x0, symName: __ZNSt3__16vectorISt4byteNS_9allocatorIS1_EEE18__construct_at_endIPS1_S6_EEvT_T0_m, symObjAddr: 0x5FCC, symBinAddr: 0x1000172E4, symSize: 0x8C }
  - { offsetInCU: 0x18500, offset: 0x40D81, size: 0x8, addend: 0x0, symName: __ZNSt3__128__exception_guard_exceptionsINS_6vectorISt4byteNS_9allocatorIS2_EEE16__destroy_vectorEE10__completeB8ue170006Ev, symObjAddr: 0x6058, symBinAddr: 0x100017370, symSize: 0x1C }
  - { offsetInCU: 0x18526, offset: 0x40DA7, size: 0x8, addend: 0x0, symName: __ZNSt3__128__exception_guard_exceptionsINS_6vectorISt4byteNS_9allocatorIS2_EEE16__destroy_vectorEED1B8ue170006Ev, symObjAddr: 0x6074, symBinAddr: 0x10001738C, symSize: 0x2C }
  - { offsetInCU: 0x18550, offset: 0x40DD1, size: 0x8, addend: 0x0, symName: __ZNSt3__128__exception_guard_exceptionsINS_6vectorISt4byteNS_9allocatorIS2_EEE16__destroy_vectorEEC1B8ue170006ES6_, symObjAddr: 0x60A0, symBinAddr: 0x1000173B8, symSize: 0x34 }
  - { offsetInCU: 0x18588, offset: 0x40E09, size: 0x8, addend: 0x0, symName: __ZNSt3__128__exception_guard_exceptionsINS_6vectorISt4byteNS_9allocatorIS2_EEE16__destroy_vectorEEC2B8ue170006ES6_, symObjAddr: 0x60D4, symBinAddr: 0x1000173EC, symSize: 0x24 }
  - { offsetInCU: 0x185DA, offset: 0x40E5B, size: 0x8, addend: 0x0, symName: __ZNSt3__14pairIPSt4byteS2_EC1B8ue170006IS2_S2_LPv0EEEOT_OT0_, symObjAddr: 0x6248, symBinAddr: 0x100017560, symSize: 0x3C }
  - { offsetInCU: 0x18638, offset: 0x40EB9, size: 0x8, addend: 0x0, symName: __ZNSt3__14pairIPSt4byteS2_EC2B8ue170006IS2_S2_LPv0EEEOT_OT0_, symObjAddr: 0x6284, symBinAddr: 0x10001759C, symSize: 0x34 }
  - { offsetInCU: 0x18696, offset: 0x40F17, size: 0x8, addend: 0x0, symName: __ZNKSt3__114__copy_trivialclB8ue170006ISt4byteS2_Li0EEENS_4pairIPT_PT0_EES5_S5_S7_, symObjAddr: 0x6434, symBinAddr: 0x10001774C, symSize: 0x48 }
  - { offsetInCU: 0x186FE, offset: 0x40F7F, size: 0x8, addend: 0x0, symName: __ZNSt3__14pairIPSt4byteS2_EC1B8ue170006IRS2_S2_LPv0EEEOT_OT0_, symObjAddr: 0x65BC, symBinAddr: 0x1000178D4, symSize: 0x3C }
  - { offsetInCU: 0x1875C, offset: 0x40FDD, size: 0x8, addend: 0x0, symName: __ZNSt3__14pairIPSt4byteS2_EC2B8ue170006IRS2_S2_LPv0EEEOT_OT0_, symObjAddr: 0x65F8, symBinAddr: 0x100017910, symSize: 0x34 }
  - { offsetInCU: 0x187BA, offset: 0x4103B, size: 0x8, addend: 0x0, symName: __ZNSt3__128__exception_guard_exceptionsINS_6vectorISt4byteNS_9allocatorIS2_EEE16__destroy_vectorEED2B8ue170006Ev, symObjAddr: 0x662C, symBinAddr: 0x100017944, symSize: 0x48 }
  - { offsetInCU: 0x57, offset: 0x411C5, size: 0x8, addend: 0x0, symName: __ZN3rtcL26DEFAULT_OPUS_AUDIO_PROFILEE, symObjAddr: 0x31D40, symBinAddr: 0x100028030, symSize: 0x0 }
  - { offsetInCU: 0x71, offset: 0x411DF, size: 0x8, addend: 0x0, symName: __ZN3rtcL26DEFAULT_H264_VIDEO_PROFILEE, symObjAddr: 0x31D58, symBinAddr: 0x100028048, symSize: 0x0 }
  - { offsetInCU: 0x36AF, offset: 0x4481D, size: 0x8, addend: 0x0, symName: __ZNSt3__17advanceB8ue170006INS_11__wrap_iterIPSt4byteEEllvEEvRT_T0_, symObjAddr: 0x1C0C, symBinAddr: 0x100018CF4, symSize: 0x38 }
  - { offsetInCU: 0x4A3B, offset: 0x45BA9, size: 0x8, addend: 0x0, symName: __ZNSt3__18distanceB8ue170006INS_11__wrap_iterIPSt4byteEEEENS_15iterator_traitsIT_E15difference_typeES6_S6_, symObjAddr: 0x1B2C, symBinAddr: 0x100018C3C, symSize: 0x3C }
  - { offsetInCU: 0x4A7E, offset: 0x45BEC, size: 0x8, addend: 0x0, symName: __ZNSt3__1miB8ue170006IPKSt4bytePS1_EEDTmicldtfp_4baseEcldtfp0_4baseEERKNS_11__wrap_iterIT_EERKNS6_IT0_EE, symObjAddr: 0x1B68, symBinAddr: 0x100018C78, symSize: 0x40 }
  - { offsetInCU: 0x4ACA, offset: 0x45C38, size: 0x8, addend: 0x0, symName: __ZNSt3__14nextB8ue170006INS_11__wrap_iterIPSt4byteEEEENS_9enable_ifIXsr29__has_input_iterator_categoryIT_EE5valueES6_E4typeES6_NS_15iterator_traitsIS6_E15difference_typeE, symObjAddr: 0x1BD0, symBinAddr: 0x100018CB8, symSize: 0x3C }
  - { offsetInCU: 0x4B0D, offset: 0x45C7B, size: 0x8, addend: 0x0, symName: __ZNSt3__14copyB8ue170006INS_11__wrap_iterIPSt4byteEES3_EET0_T_S6_S5_, symObjAddr: 0x1E00, symBinAddr: 0x100018EE8, symSize: 0x50 }
  - { offsetInCU: 0x4B67, offset: 0x45CD5, size: 0x8, addend: 0x0, symName: __ZNSt3__19__advanceB8ue170006INS_11__wrap_iterIPSt4byteEEEEvRT_NS_15iterator_traitsIS5_E15difference_typeENS_26random_access_iterator_tagE, symObjAddr: 0x21F4, symBinAddr: 0x1000191DC, symSize: 0x2C }
  - { offsetInCU: 0x4BB2, offset: 0x45D20, size: 0x8, addend: 0x0, symName: __ZNSt3__130__uninitialized_allocator_copyB8ue170006INS_9allocatorISt4byteEENS_11__wrap_iterIPS2_EES6_S5_EET2_RT_T0_T1_S7_, symObjAddr: 0x225C, symBinAddr: 0x100019208, symSize: 0x90 }
  - { offsetInCU: 0x4C4F, offset: 0x45DBD, size: 0x8, addend: 0x0, symName: __ZNSt3__114__unwrap_rangeB8ue170006INS_11__wrap_iterIPSt4byteEES3_EENS_4pairIT0_S6_EET_S8_, symObjAddr: 0x235C, symBinAddr: 0x100019298, symSize: 0x70 }
  - { offsetInCU: 0x4C9B, offset: 0x45E09, size: 0x8, addend: 0x0, symName: __ZNSt3__113__unwrap_iterB8ue170006INS_11__wrap_iterIPSt4byteEENS_18__unwrap_iter_implIS4_Lb1EEELi0EEEDTclsrT0_8__unwrapclsr3stdE7declvalIT_EEEES8_, symObjAddr: 0x249C, symBinAddr: 0x100019308, symSize: 0x2C }
  - { offsetInCU: 0x4E64, offset: 0x45FD2, size: 0x8, addend: 0x0, symName: __ZNSt3__112__to_addressB8ue170006INS_11__wrap_iterIPSt4byteEEvEEu7__decayIDTclsr19__to_address_helperIT_EE6__callclsr3stdE7declvalIRKS5_EEEEES7_, symObjAddr: 0x2560, symBinAddr: 0x10001935C, symSize: 0x24 }
  - { offsetInCU: 0x4F40, offset: 0x460AE, size: 0x8, addend: 0x0, symName: __ZNSt3__113move_backwardB8ue170006IPSt4byteS2_EET0_T_S4_S3_, symObjAddr: 0x2A74, symBinAddr: 0x100019410, symSize: 0x40 }
  - { offsetInCU: 0x4F9A, offset: 0x46108, size: 0x8, addend: 0x0, symName: __ZNSt3__115__move_backwardB8ue170006INS_17_ClassicAlgPolicyEPSt4byteS3_S3_EENS_4pairIT0_T2_EES5_T1_S6_, symObjAddr: 0x2ADC, symBinAddr: 0x100019478, symSize: 0x44 }
  - { offsetInCU: 0x5006, offset: 0x46174, size: 0x8, addend: 0x0, symName: __ZNSt3__123__dispatch_copy_or_moveB8ue170006INS_17_ClassicAlgPolicyENS_20__move_backward_loopIS1_EENS_23__move_backward_trivialEPSt4byteS6_S6_EENS_4pairIT2_T4_EES8_T3_S9_, symObjAddr: 0x2B20, symBinAddr: 0x1000194BC, symSize: 0x44 }
  - { offsetInCU: 0x5084, offset: 0x461F2, size: 0x8, addend: 0x0, symName: __ZNSt3__121__unwrap_and_dispatchB8ue170006INS_10__overloadINS_20__move_backward_loopINS_17_ClassicAlgPolicyEEENS_23__move_backward_trivialEEEPSt4byteS8_S8_Li0EEENS_4pairIT0_T2_EESA_T1_SB_, symObjAddr: 0x2B64, symBinAddr: 0x100019500, symSize: 0xB4 }
  - { offsetInCU: 0x5158, offset: 0x462C6, size: 0x8, addend: 0x0, symName: __ZNSt3__128__copy_backward_trivial_implB8ue170006ISt4byteS1_EENS_4pairIPT_PT0_EES4_S4_S6_, symObjAddr: 0x2C60, symBinAddr: 0x1000195FC, symSize: 0x80 }
  - { offsetInCU: 0x51C0, offset: 0x4632E, size: 0x8, addend: 0x0, symName: __ZNSt3__19make_pairB8ue170006IRPSt4byteS3_EENS_4pairINS_18__unwrap_ref_decayIT_E4typeENS5_IT0_E4typeEEEOS6_OS9_, symObjAddr: 0x2CE0, symBinAddr: 0x10001967C, symSize: 0x38 }
  - { offsetInCU: 0x520F, offset: 0x4637D, size: 0x8, addend: 0x0, symName: __ZNSt3__16__copyB8ue170006INS_17_ClassicAlgPolicyENS_11__wrap_iterIPSt4byteEES5_S4_EENS_4pairIT0_T2_EES7_T1_S8_, symObjAddr: 0x2D88, symBinAddr: 0x100019724, symSize: 0x54 }
  - { offsetInCU: 0x527B, offset: 0x463E9, size: 0x8, addend: 0x0, symName: __ZNSt3__123__dispatch_copy_or_moveB8ue170006INS_17_ClassicAlgPolicyENS_11__copy_loopIS1_EENS_14__copy_trivialENS_11__wrap_iterIPSt4byteEES8_S7_EENS_4pairIT2_T4_EESA_T3_SB_, symObjAddr: 0x2DDC, symBinAddr: 0x100019778, symSize: 0x54 }
  - { offsetInCU: 0x52F9, offset: 0x46467, size: 0x8, addend: 0x0, symName: __ZNSt3__121__unwrap_and_dispatchB8ue170006INS_10__overloadINS_11__copy_loopINS_17_ClassicAlgPolicyEEENS_14__copy_trivialEEENS_11__wrap_iterIPSt4byteEESA_S9_Li0EEENS_4pairIT0_T2_EESC_T1_SD_, symObjAddr: 0x2E30, symBinAddr: 0x1000197CC, symSize: 0xCC }
  - { offsetInCU: 0x5387, offset: 0x464F5, size: 0x8, addend: 0x0, symName: __ZNSt3__19make_pairB8ue170006INS_11__wrap_iterIPSt4byteEES3_EENS_4pairINS_18__unwrap_ref_decayIT_E4typeENS6_IT0_E4typeEEEOS7_OSA_, symObjAddr: 0x2EFC, symBinAddr: 0x100019898, symSize: 0x38 }
  - { offsetInCU: 0x53D6, offset: 0x46544, size: 0x8, addend: 0x0, symName: __ZNSt3__114__rewrap_rangeB8ue170006INS_11__wrap_iterIPSt4byteEES3_EET_S5_T0_, symObjAddr: 0x2F34, symBinAddr: 0x1000198D0, symSize: 0x3C }
  - { offsetInCU: 0x54F6, offset: 0x46664, size: 0x8, addend: 0x0, symName: __ZNSt3__113__rewrap_iterB8ue170006INS_11__wrap_iterIPSt4byteEES3_NS_18__unwrap_iter_implIS4_Lb1EEEEET_S7_T0_, symObjAddr: 0x2FE0, symBinAddr: 0x10001997C, symSize: 0x4C }
  - { offsetInCU: 0x554B, offset: 0x466B9, size: 0x8, addend: 0x0, symName: __ZNSt3__142__uninitialized_allocator_move_if_noexceptB8ue170006INS_9allocatorISt4byteEENS_16reverse_iteratorIPS2_EES6_S2_vEET1_RT_T0_SA_S7_, symObjAddr: 0x38EC, symBinAddr: 0x100019DA8, symSize: 0x78 }
  - { offsetInCU: 0x55C9, offset: 0x46737, size: 0x8, addend: 0x0, symName: __ZNSt3__142__uninitialized_allocator_move_if_noexceptB8ue170006INS_9allocatorISt4byteEEPS2_S4_S2_vEET1_RT_T0_S8_S5_, symObjAddr: 0x39B0, symBinAddr: 0x100019E6C, symSize: 0x38 }
  - { offsetInCU: 0x5646, offset: 0x467B4, size: 0x8, addend: 0x0, symName: __ZNSt3__14swapB8ue170006IPSt4byteEENS_9enable_ifIXaasr21is_move_constructibleIT_EE5valuesr18is_move_assignableIS4_EE5valueEvE4typeERS4_S7_, symObjAddr: 0x39E8, symBinAddr: 0x100019EA4, symSize: 0x3C }
  - { offsetInCU: 0x5697, offset: 0x46805, size: 0x8, addend: 0x0, symName: __ZNSt3__14moveB8ue170006INS_16reverse_iteratorIPSt4byteEES4_EET0_T_S6_S5_, symObjAddr: 0x3AD0, symBinAddr: 0x100019EE0, symSize: 0x78 }
  - { offsetInCU: 0x56F1, offset: 0x4685F, size: 0x8, addend: 0x0, symName: __ZNSt3__16__moveB8ue170006INS_17_ClassicAlgPolicyENS_16reverse_iteratorIPSt4byteEES5_S5_EENS_4pairIT0_T2_EES7_T1_S8_, symObjAddr: 0x3B48, symBinAddr: 0x100019F58, symSize: 0x64 }
  - { offsetInCU: 0x575D, offset: 0x468CB, size: 0x8, addend: 0x0, symName: __ZNSt3__123__dispatch_copy_or_moveB8ue170006INS_17_ClassicAlgPolicyENS_11__move_loopIS1_EENS_14__move_trivialENS_16reverse_iteratorIPSt4byteEES8_S8_EENS_4pairIT2_T4_EESA_T3_SB_, symObjAddr: 0x3BAC, symBinAddr: 0x100019FBC, symSize: 0x64 }
  - { offsetInCU: 0x57DB, offset: 0x46949, size: 0x8, addend: 0x0, symName: __ZNSt3__121__unwrap_and_dispatchB8ue170006INS_10__overloadINS_11__move_loopINS_17_ClassicAlgPolicyEEENS_14__move_trivialEEENS_16reverse_iteratorIPSt4byteEESA_SA_Li0EEENS_4pairIT0_T2_EESC_T1_SD_, symObjAddr: 0x3C10, symBinAddr: 0x10001A020, symSize: 0x12C }
  - { offsetInCU: 0x586B, offset: 0x469D9, size: 0x8, addend: 0x0, symName: __ZNSt3__114__unwrap_rangeB8ue170006INS_16reverse_iteratorIPSt4byteEES4_EENS_4pairIT0_S6_EET_S8_, symObjAddr: 0x3D3C, symBinAddr: 0x10001A14C, symSize: 0x84 }
  - { offsetInCU: 0x59DD, offset: 0x46B4B, size: 0x8, addend: 0x0, symName: __ZNSt3__113__unwrap_iterB8ue170006INS_16reverse_iteratorIPSt4byteEENS_18__unwrap_iter_implIS4_Lb0EEELi0EEEDTclsrT0_8__unwrapclsr3stdE7declvalIT_EEEES8_, symObjAddr: 0x3E60, symBinAddr: 0x10001A270, symSize: 0x44 }
  - { offsetInCU: 0x5A21, offset: 0x46B8F, size: 0x8, addend: 0x0, symName: __ZNSt3__19make_pairB8ue170006INS_16reverse_iteratorIPSt4byteEES4_EENS_4pairINS_18__unwrap_ref_decayIT_E4typeENS6_IT0_E4typeEEEOS7_OSA_, symObjAddr: 0x3EA4, symBinAddr: 0x10001A2B4, symSize: 0x38 }
  - { offsetInCU: 0x5A70, offset: 0x46BDE, size: 0x8, addend: 0x0, symName: __ZNSt3__114__rewrap_rangeB8ue170006INS_16reverse_iteratorIPSt4byteEES4_EET_S5_T0_, symObjAddr: 0x3EDC, symBinAddr: 0x10001A2EC, symSize: 0x5C }
  - { offsetInCU: 0x5ABC, offset: 0x46C2A, size: 0x8, addend: 0x0, symName: __ZNSt3__113__rewrap_iterB8ue170006INS_16reverse_iteratorIPSt4byteEES4_NS_18__unwrap_iter_implIS4_Lb0EEEEET_S7_T0_, symObjAddr: 0x3F38, symBinAddr: 0x10001A348, symSize: 0x74 }
  - { offsetInCU: 0x5B11, offset: 0x46C7F, size: 0x8, addend: 0x0, symName: __ZNSt3__1neB8ue170006IPSt4byteS2_EEbRKNS_16reverse_iteratorIT_EERKNS3_IT0_EE, symObjAddr: 0x3FAC, symBinAddr: 0x10001A3BC, symSize: 0x48 }
  - { offsetInCU: 0x5C0F, offset: 0x46D7D, size: 0x8, addend: 0x0, symName: __ZNSt3__14moveB8ue170006IPSt4byteS2_EET0_T_S4_S3_, symObjAddr: 0x4150, symBinAddr: 0x10001A560, symSize: 0x40 }
  - { offsetInCU: 0x5C69, offset: 0x46DD7, size: 0x8, addend: 0x0, symName: __ZNSt3__16__moveB8ue170006INS_17_ClassicAlgPolicyEPSt4byteS3_S3_EENS_4pairIT0_T2_EES5_T1_S6_, symObjAddr: 0x4190, symBinAddr: 0x10001A5A0, symSize: 0x44 }
  - { offsetInCU: 0x5CD5, offset: 0x46E43, size: 0x8, addend: 0x0, symName: __ZNSt3__123__dispatch_copy_or_moveB8ue170006INS_17_ClassicAlgPolicyENS_11__move_loopIS1_EENS_14__move_trivialEPSt4byteS6_S6_EENS_4pairIT2_T4_EES8_T3_S9_, symObjAddr: 0x41D4, symBinAddr: 0x10001A5E4, symSize: 0x44 }
  - { offsetInCU: 0x5D53, offset: 0x46EC1, size: 0x8, addend: 0x0, symName: __ZNSt3__121__unwrap_and_dispatchB8ue170006INS_10__overloadINS_11__move_loopINS_17_ClassicAlgPolicyEEENS_14__move_trivialEEEPSt4byteS8_S8_Li0EEENS_4pairIT0_T2_EESA_T1_SB_, symObjAddr: 0x4218, symBinAddr: 0x10001A628, symSize: 0xB4 }
  - { offsetInCU: 0x5E27, offset: 0x46F95, size: 0x8, addend: 0x0, symName: __ZNSt3__110__distanceB8ue170006INS_11__wrap_iterIPSt4byteEEEENS_15iterator_traitsIT_E15difference_typeES6_S6_NS_26random_access_iterator_tagE, symObjAddr: 0x44F8, symBinAddr: 0x10001A908, symSize: 0x30 }
  - { offsetInCU: 0x5E75, offset: 0x46FE3, size: 0x8, addend: 0x0, symName: __ZNSt3__1miB8ue170006IPSt4byteS2_EEDTmicldtfp_4baseEcldtfp0_4baseEERKNS_11__wrap_iterIT_EERKNS4_IT0_EE, symObjAddr: 0x4528, symBinAddr: 0x10001A938, symSize: 0x40 }
  - { offsetInCU: 0x613C, offset: 0x472AA, size: 0x8, addend: 0x0, symName: __ZNSt3__16vectorISt4byteNS_9allocatorIS1_EEE26__swap_out_circular_bufferERNS_14__split_bufferIS1_RS3_EEPS1_, symObjAddr: 0x2018, symBinAddr: 0x10001904C, symSize: 0x14C }
  - { offsetInCU: 0x8360, offset: 0x494CE, size: 0x8, addend: 0x0, symName: __ZN14H264FileParserC2ENSt3__112basic_stringIcNS0_11char_traitsIcEENS0_9allocatorIcEEEEjb, symObjAddr: 0x34, symBinAddr: 0x100017A34, symSize: 0x100 }
  - { offsetInCU: 0x83B7, offset: 0x49525, size: 0x8, addend: 0x0, symName: __ZNSt3__18optionalINS_6vectorISt4byteNS_9allocatorIS2_EEEEEC1B8ue170006ENS_9nullopt_tE, symObjAddr: 0x134, symBinAddr: 0x100017B34, symSize: 0x2C }
  - { offsetInCU: 0x83ED, offset: 0x4955B, size: 0x8, addend: 0x0, symName: __ZN14H264FileParserC1ENSt3__112basic_stringIcNS0_11char_traitsIcEENS0_9allocatorIcEEEEjb, symObjAddr: 0x160, symBinAddr: 0x100017B60, symSize: 0x50 }
  - { offsetInCU: 0x8444, offset: 0x495B2, size: 0x8, addend: 0x0, symName: __ZN14H264FileParser14loadNextSampleEv, symObjAddr: 0x1B0, symBinAddr: 0x100017BB0, symSize: 0x38C }
  - { offsetInCU: 0x84D6, offset: 0x49644, size: 0x8, addend: 0x0, symName: __ZNSt3__16vectorISt4byteNS_9allocatorIS1_EEE4dataB8ue170006Ev, symObjAddr: 0x55C, symBinAddr: 0x100017F3C, symSize: 0x28 }
  - { offsetInCU: 0x84FC, offset: 0x4966A, size: 0x8, addend: 0x0, symName: __ZL12_OSSwapInt32j, symObjAddr: 0x584, symBinAddr: 0x100017F64, symSize: 0x20 }
  - { offsetInCU: 0x8529, offset: 0x49697, size: 0x8, addend: 0x0, symName: __ZNK3rtc13NalUnitHeader8unitTypeEv, symObjAddr: 0x5A4, symBinAddr: 0x100017F84, symSize: 0x20 }
  - { offsetInCU: 0x854E, offset: 0x496BC, size: 0x8, addend: 0x0, symName: __ZNSt3__16vectorISt4byteNS_9allocatorIS1_EEE5beginB8ue170006Ev, symObjAddr: 0x5C4, symBinAddr: 0x100017FA4, symSize: 0x30 }
  - { offsetInCU: 0x8577, offset: 0x496E5, size: 0x8, addend: 0x0, symName: __ZNKSt3__111__wrap_iterIPSt4byteEplB8ue170006El, symObjAddr: 0x5F4, symBinAddr: 0x100017FD4, symSize: 0x3C }
  - { offsetInCU: 0x85B9, offset: 0x49727, size: 0x8, addend: 0x0, symName: __ZNSt3__16vectorISt4byteNS_9allocatorIS1_EEEC1INS_11__wrap_iterIPS1_EELi0EEET_S9_, symObjAddr: 0x630, symBinAddr: 0x100018010, symSize: 0x3C }
  - { offsetInCU: 0x8612, offset: 0x49780, size: 0x8, addend: 0x0, symName: __ZNSt3__18optionalINS_6vectorISt4byteNS_9allocatorIS2_EEEEEaSB8ue170006IS5_vEERS6_OT_, symObjAddr: 0x66C, symBinAddr: 0x10001804C, symSize: 0x64 }
  - { offsetInCU: 0x8651, offset: 0x497BF, size: 0x8, addend: 0x0, symName: __ZN14H264FileParser12initialNALUSEv, symObjAddr: 0x6FC, symBinAddr: 0x1000180B0, symSize: 0x2E0 }
  - { offsetInCU: 0x86C6, offset: 0x49834, size: 0x8, addend: 0x0, symName: __ZNKSt3__123__optional_storage_baseINS_6vectorISt4byteNS_9allocatorIS2_EEEELb0EE9has_valueB8ue170006Ev, symObjAddr: 0xA08, symBinAddr: 0x100018390, symSize: 0x1C }
  - { offsetInCU: 0x86EC, offset: 0x4985A, size: 0x8, addend: 0x0, symName: __ZNRSt3__18optionalINS_6vectorISt4byteNS_9allocatorIS2_EEEEE5valueB8ue170006Ev, symObjAddr: 0xA24, symBinAddr: 0x1000183AC, symSize: 0x3C }
  - { offsetInCU: 0x8711, offset: 0x4987F, size: 0x8, addend: 0x0, symName: __ZNSt3__16vectorISt4byteNS_9allocatorIS1_EEE6insertINS_11__wrap_iterIPS1_EELi0EEES8_NS6_IPKS1_EET_SC_, symObjAddr: 0xA94, symBinAddr: 0x1000183E8, symSize: 0x84 }
  - { offsetInCU: 0x8775, offset: 0x498E3, size: 0x8, addend: 0x0, symName: __ZNSt3__16vectorISt4byteNS_9allocatorIS1_EEE3endB8ue170006Ev, symObjAddr: 0xB18, symBinAddr: 0x10001846C, symSize: 0x30 }
  - { offsetInCU: 0x87A8, offset: 0x49916, size: 0x8, addend: 0x0, symName: __ZNSt3__111__wrap_iterIPKSt4byteEC1B8ue170006IPS1_EERKNS0_IT_EEPNS_9enable_ifIXsr14is_convertibleIS7_S3_EE5valueEvE4typeE, symObjAddr: 0xB48, symBinAddr: 0x10001849C, symSize: 0x3C }
  - { offsetInCU: 0x87F4, offset: 0x49962, size: 0x8, addend: 0x0, symName: __ZN14H264FileParserD1Ev, symObjAddr: 0xB84, symBinAddr: 0x1000184D8, symSize: 0x2C }
  - { offsetInCU: 0x8820, offset: 0x4998E, size: 0x8, addend: 0x0, symName: __ZN14H264FileParserD0Ev, symObjAddr: 0xBB0, symBinAddr: 0x100018504, symSize: 0x30 }
  - { offsetInCU: 0x884C, offset: 0x499BA, size: 0x8, addend: 0x0, symName: __ZNSt3__18optionalINS_6vectorISt4byteNS_9allocatorIS2_EEEEEC2B8ue170006ENS_9nullopt_tE, symObjAddr: 0xBE0, symBinAddr: 0x100018534, symSize: 0x2C }
  - { offsetInCU: 0x8882, offset: 0x499F0, size: 0x8, addend: 0x0, symName: __ZNSt3__127__optional_move_assign_baseINS_6vectorISt4byteNS_9allocatorIS2_EEEELb0EEC2B8ue170006Ev, symObjAddr: 0xC0C, symBinAddr: 0x100018560, symSize: 0x2C }
  - { offsetInCU: 0x88AC, offset: 0x49A1A, size: 0x8, addend: 0x0, symName: __ZNSt3__127__optional_copy_assign_baseINS_6vectorISt4byteNS_9allocatorIS2_EEEELb0EEC2B8ue170006Ev, symObjAddr: 0xC38, symBinAddr: 0x10001858C, symSize: 0x2C }
  - { offsetInCU: 0x88D6, offset: 0x49A44, size: 0x8, addend: 0x0, symName: __ZNSt3__120__optional_move_baseINS_6vectorISt4byteNS_9allocatorIS2_EEEELb0EEC2B8ue170006Ev, symObjAddr: 0xC64, symBinAddr: 0x1000185B8, symSize: 0x2C }
  - { offsetInCU: 0x8900, offset: 0x49A6E, size: 0x8, addend: 0x0, symName: __ZNSt3__120__optional_copy_baseINS_6vectorISt4byteNS_9allocatorIS2_EEEELb0EEC2B8ue170006Ev, symObjAddr: 0xC90, symBinAddr: 0x1000185E4, symSize: 0x2C }
  - { offsetInCU: 0x892A, offset: 0x49A98, size: 0x8, addend: 0x0, symName: __ZNSt3__123__optional_storage_baseINS_6vectorISt4byteNS_9allocatorIS2_EEEELb0EEC2Ev, symObjAddr: 0xCBC, symBinAddr: 0x100018610, symSize: 0x2C }
  - { offsetInCU: 0x8957, offset: 0x49AC5, size: 0x8, addend: 0x0, symName: __ZNSt3__124__optional_destruct_baseINS_6vectorISt4byteNS_9allocatorIS2_EEEELb0EEC2B8ue170006Ev, symObjAddr: 0xCE8, symBinAddr: 0x10001863C, symSize: 0x1C }
  - { offsetInCU: 0x8981, offset: 0x49AEF, size: 0x8, addend: 0x0, symName: __ZNSt3__111__wrap_iterIPSt4byteEpLB8ue170006El, symObjAddr: 0xD04, symBinAddr: 0x100018658, symSize: 0x28 }
  - { offsetInCU: 0x89B5, offset: 0x49B23, size: 0x8, addend: 0x0, symName: __ZNRSt3__123__optional_storage_baseINS_6vectorISt4byteNS_9allocatorIS2_EEEELb0EE5__getB8ue170006Ev, symObjAddr: 0xD64, symBinAddr: 0x100018680, symSize: 0x14 }
  - { offsetInCU: 0x89DB, offset: 0x49B49, size: 0x8, addend: 0x0, symName: __ZNSt3__111__wrap_iterIPKSt4byteEC2B8ue170006IPS1_EERKNS0_IT_EEPNS_9enable_ifIXsr14is_convertibleIS7_S3_EE5valueEvE4typeE, symObjAddr: 0xE0C, symBinAddr: 0x100018694, symSize: 0x40 }
  - { offsetInCU: 0x8A27, offset: 0x49B95, size: 0x8, addend: 0x0, symName: __ZNKSt3__111__wrap_iterIPSt4byteE4baseB8ue170006Ev, symObjAddr: 0xE4C, symBinAddr: 0x1000186D4, symSize: 0x18 }
  - { offsetInCU: 0x8A4D, offset: 0x49BBB, size: 0x8, addend: 0x0, symName: __ZN14H264FileParserD2Ev, symObjAddr: 0xE64, symBinAddr: 0x1000186EC, symSize: 0x60 }
  - { offsetInCU: 0x8A79, offset: 0x49BE7, size: 0x8, addend: 0x0, symName: __ZNSt3__18optionalINS_6vectorISt4byteNS_9allocatorIS2_EEEEED1Ev, symObjAddr: 0xEC4, symBinAddr: 0x10001874C, symSize: 0x2C }
  - { offsetInCU: 0x8AA6, offset: 0x49C14, size: 0x8, addend: 0x0, symName: __ZNSt3__18optionalINS_6vectorISt4byteNS_9allocatorIS2_EEEEED2Ev, symObjAddr: 0xEF0, symBinAddr: 0x100018778, symSize: 0x2C }
  - { offsetInCU: 0x8AD3, offset: 0x49C41, size: 0x8, addend: 0x0, symName: __ZNSt3__127__optional_move_assign_baseINS_6vectorISt4byteNS_9allocatorIS2_EEEELb0EED2Ev, symObjAddr: 0xF1C, symBinAddr: 0x1000187A4, symSize: 0x2C }
  - { offsetInCU: 0x8B00, offset: 0x49C6E, size: 0x8, addend: 0x0, symName: __ZNSt3__127__optional_copy_assign_baseINS_6vectorISt4byteNS_9allocatorIS2_EEEELb0EED2Ev, symObjAddr: 0xF48, symBinAddr: 0x1000187D0, symSize: 0x2C }
  - { offsetInCU: 0x8B2D, offset: 0x49C9B, size: 0x8, addend: 0x0, symName: __ZNSt3__120__optional_move_baseINS_6vectorISt4byteNS_9allocatorIS2_EEEELb0EED2Ev, symObjAddr: 0xF74, symBinAddr: 0x1000187FC, symSize: 0x2C }
  - { offsetInCU: 0x8B5A, offset: 0x49CC8, size: 0x8, addend: 0x0, symName: __ZNSt3__120__optional_copy_baseINS_6vectorISt4byteNS_9allocatorIS2_EEEELb0EED2Ev, symObjAddr: 0xFA0, symBinAddr: 0x100018828, symSize: 0x2C }
  - { offsetInCU: 0x8B87, offset: 0x49CF5, size: 0x8, addend: 0x0, symName: __ZNSt3__123__optional_storage_baseINS_6vectorISt4byteNS_9allocatorIS2_EEEELb0EED2Ev, symObjAddr: 0xFCC, symBinAddr: 0x100018854, symSize: 0x2C }
  - { offsetInCU: 0x8BB4, offset: 0x49D22, size: 0x8, addend: 0x0, symName: __ZNSt3__124__optional_destruct_baseINS_6vectorISt4byteNS_9allocatorIS2_EEEELb0EED2B8ue170006Ev, symObjAddr: 0xFF8, symBinAddr: 0x100018880, symSize: 0x48 }
  - { offsetInCU: 0x8BDE, offset: 0x49D4C, size: 0x8, addend: 0x0, symName: __ZNSt3__16vectorISt4byteNS_9allocatorIS1_EEE11__make_iterB8ue170006EPS1_, symObjAddr: 0x17B8, symBinAddr: 0x1000188C8, symSize: 0x30 }
  - { offsetInCU: 0x8C13, offset: 0x49D81, size: 0x8, addend: 0x0, symName: __ZNSt3__111__wrap_iterIPSt4byteEC1B8ue170006ES2_, symObjAddr: 0x17E8, symBinAddr: 0x1000188F8, symSize: 0x34 }
  - { offsetInCU: 0x8C4B, offset: 0x49DB9, size: 0x8, addend: 0x0, symName: __ZNSt3__111__wrap_iterIPSt4byteEC2B8ue170006ES2_, symObjAddr: 0x181C, symBinAddr: 0x10001892C, symSize: 0x20 }
  - { offsetInCU: 0x8C82, offset: 0x49DF0, size: 0x8, addend: 0x0, symName: __ZNSt3__16vectorISt4byteNS_9allocatorIS1_EEE18__insert_with_sizeB8ue170006INS_11__wrap_iterIPS1_EES8_EES8_NS6_IPKS1_EET_T0_l, symObjAddr: 0x183C, symBinAddr: 0x10001894C, symSize: 0x2F0 }
  - { offsetInCU: 0x8DAA, offset: 0x49F18, size: 0x8, addend: 0x0, symName: __ZNSt3__16vectorISt4byteNS_9allocatorIS1_EEE18__construct_at_endINS_11__wrap_iterIPS1_EES8_EEvT_T0_m, symObjAddr: 0x1C44, symBinAddr: 0x100018D2C, symSize: 0x9C }
  - { offsetInCU: 0x8E20, offset: 0x49F8E, size: 0x8, addend: 0x0, symName: __ZNSt3__16vectorISt4byteNS_9allocatorIS1_EEE12__move_rangeEPS1_S5_S5_, symObjAddr: 0x1CE0, symBinAddr: 0x100018DC8, symSize: 0x120 }
  - { offsetInCU: 0x8EDD, offset: 0x4A04B, size: 0x8, addend: 0x0, symName: __ZNSt3__114__split_bufferISt4byteRNS_9allocatorIS1_EEEC1EmmS4_, symObjAddr: 0x1F04, symBinAddr: 0x100018F38, symSize: 0x44 }
  - { offsetInCU: 0x8F32, offset: 0x4A0A0, size: 0x8, addend: 0x0, symName: __ZNSt3__114__split_bufferISt4byteRNS_9allocatorIS1_EEE28__construct_at_end_with_sizeINS_11__wrap_iterIPS1_EEEEvT_m, symObjAddr: 0x1F48, symBinAddr: 0x100018F7C, symSize: 0xD0 }
  - { offsetInCU: 0x8F8F, offset: 0x4A0FD, size: 0x8, addend: 0x0, symName: __ZNSt3__114__split_bufferISt4byteRNS_9allocatorIS1_EEED1Ev, symObjAddr: 0x2164, symBinAddr: 0x100019198, symSize: 0x2C }
  - { offsetInCU: 0x8FBB, offset: 0x4A129, size: 0x8, addend: 0x0, symName: __ZNKSt3__111__wrap_iterIPKSt4byteE4baseB8ue170006Ev, symObjAddr: 0x2190, symBinAddr: 0x1000191C4, symSize: 0x18 }
  - { offsetInCU: 0x901A, offset: 0x4A188, size: 0x8, addend: 0x0, symName: __ZNSt3__118__unwrap_iter_implINS_11__wrap_iterIPSt4byteEELb1EE8__unwrapB8ue170006ES4_, symObjAddr: 0x2538, symBinAddr: 0x100019334, symSize: 0x28 }
  - { offsetInCU: 0x9042, offset: 0x4A1B0, size: 0x8, addend: 0x0, symName: __ZNSt3__119__to_address_helperINS_11__wrap_iterIPSt4byteEEvE6__callB8ue170006ERKS4_, symObjAddr: 0x2584, symBinAddr: 0x100019380, symSize: 0x30 }
  - { offsetInCU: 0x9065, offset: 0x4A1D3, size: 0x8, addend: 0x0, symName: __ZNSt3__114pointer_traitsINS_11__wrap_iterIPSt4byteEEE10to_addressB8ue170006ES4_, symObjAddr: 0x25B4, symBinAddr: 0x1000193B0, symSize: 0x2C }
  - { offsetInCU: 0x908E, offset: 0x4A1FC, size: 0x8, addend: 0x0, symName: __ZNSt3__116allocator_traitsINS_9allocatorISt4byteEEE9constructB8ue170006IS2_JS2_EvEEvRS3_PT_DpOT0_, symObjAddr: 0x2A40, symBinAddr: 0x1000193DC, symSize: 0x34 }
  - { offsetInCU: 0x90E5, offset: 0x4A253, size: 0x8, addend: 0x0, symName: __ZNSt3__19allocatorISt4byteE9constructB8ue170006IS1_JS1_EEEvPT_DpOT0_, symObjAddr: 0x2AB4, symBinAddr: 0x100019450, symSize: 0x28 }
  - { offsetInCU: 0x9145, offset: 0x4A2B3, size: 0x8, addend: 0x0, symName: __ZNKSt3__123__move_backward_trivialclB8ue170006ISt4byteS2_Li0EEENS_4pairIPT_PT0_EES5_S5_S7_, symObjAddr: 0x2C18, symBinAddr: 0x1000195B4, symSize: 0x48 }
  - { offsetInCU: 0x91AD, offset: 0x4A31B, size: 0x8, addend: 0x0, symName: __ZNSt3__14pairIPSt4byteS2_EC1B8ue170006IRS2_S5_LPv0EEEOT_OT0_, symObjAddr: 0x2D18, symBinAddr: 0x1000196B4, symSize: 0x3C }
  - { offsetInCU: 0x920B, offset: 0x4A379, size: 0x8, addend: 0x0, symName: __ZNSt3__14pairIPSt4byteS2_EC2B8ue170006IRS2_S5_LPv0EEEOT_OT0_, symObjAddr: 0x2D54, symBinAddr: 0x1000196F0, symSize: 0x34 }
  - { offsetInCU: 0x9289, offset: 0x4A3F7, size: 0x8, addend: 0x0, symName: __ZNSt3__14pairINS_11__wrap_iterIPSt4byteEES3_EC1B8ue170006IS4_S3_LPv0EEEOT_OT0_, symObjAddr: 0x2F70, symBinAddr: 0x10001990C, symSize: 0x3C }
  - { offsetInCU: 0x92E7, offset: 0x4A455, size: 0x8, addend: 0x0, symName: __ZNSt3__14pairINS_11__wrap_iterIPSt4byteEES3_EC2B8ue170006IS4_S3_LPv0EEEOT_OT0_, symObjAddr: 0x2FAC, symBinAddr: 0x100019948, symSize: 0x34 }
  - { offsetInCU: 0x9345, offset: 0x4A4B3, size: 0x8, addend: 0x0, symName: __ZNSt3__118__unwrap_iter_implINS_11__wrap_iterIPSt4byteEELb1EE8__rewrapB8ue170006ES4_S3_, symObjAddr: 0x302C, symBinAddr: 0x1000199C8, symSize: 0x54 }
  - { offsetInCU: 0x9380, offset: 0x4A4EE, size: 0x8, addend: 0x0, symName: __ZNSt3__114__split_bufferISt4byteRNS_9allocatorIS1_EEEC2EmmS4_, symObjAddr: 0x33C8, symBinAddr: 0x100019A1C, symSize: 0xD4 }
  - { offsetInCU: 0x93F9, offset: 0x4A567, size: 0x8, addend: 0x0, symName: __ZNSt3__117__compressed_pairIPSt4byteRNS_9allocatorIS1_EEEC1B8ue170006IDnS5_EEOT_OT0_, symObjAddr: 0x349C, symBinAddr: 0x100019AF0, symSize: 0x3C }
  - { offsetInCU: 0x9451, offset: 0x4A5BF, size: 0x8, addend: 0x0, symName: __ZNSt3__114__split_bufferISt4byteRNS_9allocatorIS1_EEE7__allocB8ue170006Ev, symObjAddr: 0x3518, symBinAddr: 0x100019B2C, symSize: 0x28 }
  - { offsetInCU: 0x9477, offset: 0x4A5E5, size: 0x8, addend: 0x0, symName: __ZNSt3__114__split_bufferISt4byteRNS_9allocatorIS1_EEE9__end_capB8ue170006Ev, symObjAddr: 0x3540, symBinAddr: 0x100019B54, symSize: 0x28 }
  - { offsetInCU: 0x949D, offset: 0x4A60B, size: 0x8, addend: 0x0, symName: __ZNSt3__117__compressed_pairIPSt4byteRNS_9allocatorIS1_EEEC2B8ue170006IDnS5_EEOT_OT0_, symObjAddr: 0x3568, symBinAddr: 0x100019B7C, symSize: 0x48 }
  - { offsetInCU: 0x94F5, offset: 0x4A663, size: 0x8, addend: 0x0, symName: __ZNSt3__122__compressed_pair_elemIRNS_9allocatorISt4byteEELi1ELb0EEC2B8ue170006IS4_vEEOT_, symObjAddr: 0x35CC, symBinAddr: 0x100019BC4, symSize: 0x20 }
  - { offsetInCU: 0x9537, offset: 0x4A6A5, size: 0x8, addend: 0x0, symName: __ZNSt3__117__compressed_pairIPSt4byteRNS_9allocatorIS1_EEE6secondB8ue170006Ev, symObjAddr: 0x3728, symBinAddr: 0x100019BE4, symSize: 0x28 }
  - { offsetInCU: 0x955D, offset: 0x4A6CB, size: 0x8, addend: 0x0, symName: __ZNSt3__122__compressed_pair_elemIRNS_9allocatorISt4byteEELi1ELb0EE5__getB8ue170006Ev, symObjAddr: 0x3750, symBinAddr: 0x100019C0C, symSize: 0x18 }
  - { offsetInCU: 0x9583, offset: 0x4A6F1, size: 0x8, addend: 0x0, symName: __ZNSt3__117__compressed_pairIPSt4byteRNS_9allocatorIS1_EEE5firstB8ue170006Ev, symObjAddr: 0x3768, symBinAddr: 0x100019C24, symSize: 0x24 }
  - { offsetInCU: 0x95B3, offset: 0x4A721, size: 0x8, addend: 0x0, symName: __ZNSt3__114__split_bufferISt4byteRNS_9allocatorIS1_EEE21_ConstructTransactionC1B8ue170006EPPS1_m, symObjAddr: 0x378C, symBinAddr: 0x100019C48, symSize: 0x3C }
  - { offsetInCU: 0x95F9, offset: 0x4A767, size: 0x8, addend: 0x0, symName: __ZNSt3__116allocator_traitsINS_9allocatorISt4byteEEE9constructB8ue170006IS2_JRS2_EvEEvRS3_PT_DpOT0_, symObjAddr: 0x37C8, symBinAddr: 0x100019C84, symSize: 0x34 }
  - { offsetInCU: 0x9650, offset: 0x4A7BE, size: 0x8, addend: 0x0, symName: __ZNKSt3__111__wrap_iterIPSt4byteEdeB8ue170006Ev, symObjAddr: 0x37FC, symBinAddr: 0x100019CB8, symSize: 0x18 }
  - { offsetInCU: 0x9676, offset: 0x4A7E4, size: 0x8, addend: 0x0, symName: __ZNSt3__111__wrap_iterIPSt4byteEppB8ue170006Ev, symObjAddr: 0x3814, symBinAddr: 0x100019CD0, symSize: 0x20 }
  - { offsetInCU: 0x969C, offset: 0x4A80A, size: 0x8, addend: 0x0, symName: __ZNSt3__114__split_bufferISt4byteRNS_9allocatorIS1_EEE21_ConstructTransactionD1B8ue170006Ev, symObjAddr: 0x3834, symBinAddr: 0x100019CF0, symSize: 0x2C }
  - { offsetInCU: 0x96C6, offset: 0x4A834, size: 0x8, addend: 0x0, symName: __ZNSt3__114__split_bufferISt4byteRNS_9allocatorIS1_EEE21_ConstructTransactionC2B8ue170006EPPS1_m, symObjAddr: 0x3860, symBinAddr: 0x100019D1C, symSize: 0x44 }
  - { offsetInCU: 0x970C, offset: 0x4A87A, size: 0x8, addend: 0x0, symName: __ZNSt3__19allocatorISt4byteE9constructB8ue170006IS1_JRS1_EEEvPT_DpOT0_, symObjAddr: 0x38A4, symBinAddr: 0x100019D60, symSize: 0x28 }
  - { offsetInCU: 0x9762, offset: 0x4A8D0, size: 0x8, addend: 0x0, symName: __ZNSt3__114__split_bufferISt4byteRNS_9allocatorIS1_EEE21_ConstructTransactionD2B8ue170006Ev, symObjAddr: 0x38CC, symBinAddr: 0x100019D88, symSize: 0x20 }
  - { offsetInCU: 0x978C, offset: 0x4A8FA, size: 0x8, addend: 0x0, symName: __ZNSt3__116reverse_iteratorIPSt4byteEC1B8ue170006ES2_, symObjAddr: 0x3964, symBinAddr: 0x100019E20, symSize: 0x34 }
  - { offsetInCU: 0x97C4, offset: 0x4A932, size: 0x8, addend: 0x0, symName: __ZNKSt3__116reverse_iteratorIPSt4byteE4baseB8ue170006Ev, symObjAddr: 0x3998, symBinAddr: 0x100019E54, symSize: 0x18 }
  - { offsetInCU: 0x980E, offset: 0x4A97C, size: 0x8, addend: 0x0, symName: __ZNKSt3__111__move_loopINS_17_ClassicAlgPolicyEEclB8ue170006INS_16reverse_iteratorIPSt4byteEES7_S7_EENS_4pairIT_T1_EES9_T0_SA_, symObjAddr: 0x3DC0, symBinAddr: 0x10001A1D0, symSize: 0xA0 }
  - { offsetInCU: 0x9879, offset: 0x4A9E7, size: 0x8, addend: 0x0, symName: __ZNSt3__18_IterOpsINS_17_ClassicAlgPolicyEE11__iter_moveB8ue170006IRNS_16reverse_iteratorIPSt4byteEEEENS_9enable_ifIXsr12is_referenceIDTdeclsr3stdE7declvalIRT_EEEEE5valueEDTclsr3stdE4movedeclsr3stdE7declvalISB_EEEEE4typeEOSA_, symObjAddr: 0x3FF4, symBinAddr: 0x10001A404, symSize: 0x28 }
  - { offsetInCU: 0x98A5, offset: 0x4AA13, size: 0x8, addend: 0x0, symName: __ZNKSt3__116reverse_iteratorIPSt4byteEdeB8ue170006Ev, symObjAddr: 0x401C, symBinAddr: 0x10001A42C, symSize: 0x28 }
  - { offsetInCU: 0x98D9, offset: 0x4AA47, size: 0x8, addend: 0x0, symName: __ZNSt3__116reverse_iteratorIPSt4byteEppB8ue170006Ev, symObjAddr: 0x4044, symBinAddr: 0x10001A454, symSize: 0x20 }
  - { offsetInCU: 0x98FF, offset: 0x4AA6D, size: 0x8, addend: 0x0, symName: __ZNSt3__18_IterOpsINS_17_ClassicAlgPolicyEE25__validate_iter_referenceB8ue170006IRNS_16reverse_iteratorIPSt4byteEEEEvv, symObjAddr: 0x4064, symBinAddr: 0x10001A474, symSize: 0x4 }
  - { offsetInCU: 0x991D, offset: 0x4AA8B, size: 0x8, addend: 0x0, symName: __ZNSt3__118__unwrap_iter_implINS_16reverse_iteratorIPSt4byteEELb0EE8__unwrapB8ue170006ES4_, symObjAddr: 0x4068, symBinAddr: 0x10001A478, symSize: 0x24 }
  - { offsetInCU: 0x9946, offset: 0x4AAB4, size: 0x8, addend: 0x0, symName: __ZNSt3__14pairINS_16reverse_iteratorIPSt4byteEES4_EC1B8ue170006IS4_S4_LPv0EEEOT_OT0_, symObjAddr: 0x408C, symBinAddr: 0x10001A49C, symSize: 0x3C }
  - { offsetInCU: 0x99A4, offset: 0x4AB12, size: 0x8, addend: 0x0, symName: __ZNSt3__14pairINS_16reverse_iteratorIPSt4byteEES4_EC2B8ue170006IS4_S4_LPv0EEEOT_OT0_, symObjAddr: 0x40C8, symBinAddr: 0x10001A4D8, symSize: 0x34 }
  - { offsetInCU: 0x9A02, offset: 0x4AB70, size: 0x8, addend: 0x0, symName: __ZNSt3__118__unwrap_iter_implINS_16reverse_iteratorIPSt4byteEELb0EE8__rewrapB8ue170006ES4_S4_, symObjAddr: 0x40FC, symBinAddr: 0x10001A50C, symSize: 0x2C }
  - { offsetInCU: 0x9A30, offset: 0x4AB9E, size: 0x8, addend: 0x0, symName: __ZNSt3__116reverse_iteratorIPSt4byteEC2B8ue170006ES2_, symObjAddr: 0x4128, symBinAddr: 0x10001A538, symSize: 0x28 }
  - { offsetInCU: 0x9A72, offset: 0x4ABE0, size: 0x8, addend: 0x0, symName: __ZNKSt3__114__move_trivialclB8ue170006ISt4byteS2_Li0EEENS_4pairIPT_PT0_EES5_S5_S7_, symObjAddr: 0x42CC, symBinAddr: 0x10001A6DC, symSize: 0x48 }
  - { offsetInCU: 0x9ADA, offset: 0x4AC48, size: 0x8, addend: 0x0, symName: __ZNSt3__114__split_bufferISt4byteRNS_9allocatorIS1_EEED2Ev, symObjAddr: 0x4314, symBinAddr: 0x10001A724, symSize: 0x8C }
  - { offsetInCU: 0x9B06, offset: 0x4AC74, size: 0x8, addend: 0x0, symName: __ZNSt3__114__split_bufferISt4byteRNS_9allocatorIS1_EEE5clearB8ue170006Ev, symObjAddr: 0x43A0, symBinAddr: 0x10001A7B0, symSize: 0x28 }
  - { offsetInCU: 0x9B2C, offset: 0x4AC9A, size: 0x8, addend: 0x0, symName: __ZNKSt3__114__split_bufferISt4byteRNS_9allocatorIS1_EEE8capacityB8ue170006Ev, symObjAddr: 0x43C8, symBinAddr: 0x10001A7D8, symSize: 0x38 }
  - { offsetInCU: 0x9B52, offset: 0x4ACC0, size: 0x8, addend: 0x0, symName: __ZNSt3__114__split_bufferISt4byteRNS_9allocatorIS1_EEE17__destruct_at_endB8ue170006EPS1_, symObjAddr: 0x4400, symBinAddr: 0x10001A810, symSize: 0x2C }
  - { offsetInCU: 0x9B85, offset: 0x4ACF3, size: 0x8, addend: 0x0, symName: __ZNSt3__114__split_bufferISt4byteRNS_9allocatorIS1_EEE17__destruct_at_endB8ue170006EPS1_NS_17integral_constantIbLb0EEE, symObjAddr: 0x442C, symBinAddr: 0x10001A83C, symSize: 0x80 }
  - { offsetInCU: 0x9BC7, offset: 0x4AD35, size: 0x8, addend: 0x0, symName: __ZNKSt3__114__split_bufferISt4byteRNS_9allocatorIS1_EEE9__end_capB8ue170006Ev, symObjAddr: 0x44AC, symBinAddr: 0x10001A8BC, symSize: 0x28 }
  - { offsetInCU: 0x9BED, offset: 0x4AD5B, size: 0x8, addend: 0x0, symName: __ZNKSt3__117__compressed_pairIPSt4byteRNS_9allocatorIS1_EEE5firstB8ue170006Ev, symObjAddr: 0x44D4, symBinAddr: 0x10001A8E4, symSize: 0x24 }
  - { offsetInCU: 0x9C13, offset: 0x4AD81, size: 0x8, addend: 0x0, symName: __ZNSt3__16vectorISt4byteNS_9allocatorIS1_EEEC2INS_11__wrap_iterIPS1_EELi0EEET_S9_, symObjAddr: 0x469C, symBinAddr: 0x10001A978, symSize: 0x94 }
  - { offsetInCU: 0x9C89, offset: 0x4ADF7, size: 0x8, addend: 0x0, symName: __ZNSt3__16vectorISt4byteNS_9allocatorIS1_EEE16__init_with_sizeB8ue170006INS_11__wrap_iterIPS1_EES8_EEvT_T0_m, symObjAddr: 0x4730, symBinAddr: 0x10001AA0C, symSize: 0xC8 }
  - { offsetInCU: 0x9CFC, offset: 0x4AE6A, size: 0x8, addend: 0x0, symName: __ZNSt3__16vectorISt4byteNS_9allocatorIS1_EEEaSB8ue170006EOS4_, symObjAddr: 0x49CC, symBinAddr: 0x10001AAD4, symSize: 0x34 }
  - { offsetInCU: 0x9D34, offset: 0x4AEA2, size: 0x8, addend: 0x0, symName: __ZNSt3__123__optional_storage_baseINS_6vectorISt4byteNS_9allocatorIS2_EEEELb0EE11__constructB8ue170006IJS5_EEEvDpOT_, symObjAddr: 0x4A00, symBinAddr: 0x10001AB08, symSize: 0x3C }
  - { offsetInCU: 0x9D73, offset: 0x4AEE1, size: 0x8, addend: 0x0, symName: __ZNSt3__16vectorISt4byteNS_9allocatorIS1_EEE13__move_assignERS4_NS_17integral_constantIbLb1EEE, symObjAddr: 0x4A3C, symBinAddr: 0x10001AB44, symSize: 0x94 }
  - { offsetInCU: 0x9DB7, offset: 0x4AF25, size: 0x8, addend: 0x0, symName: __ZNSt3__16vectorISt4byteNS_9allocatorIS1_EEE19__move_assign_allocB8ue170006ERS4_, symObjAddr: 0x4B64, symBinAddr: 0x10001ABD8, symSize: 0x2C }
  - { offsetInCU: 0x9DEC, offset: 0x4AF5A, size: 0x8, addend: 0x0, symName: __ZNSt3__16vectorISt4byteNS_9allocatorIS1_EEE19__move_assign_allocB8ue170006ERS4_NS_17integral_constantIbLb1EEE, symObjAddr: 0x4C88, symBinAddr: 0x10001AC04, symSize: 0x38 }
  - { offsetInCU: 0x9E2D, offset: 0x4AF9B, size: 0x8, addend: 0x0, symName: __ZNSt3__16vectorISt4byteNS_9allocatorIS1_EEEC1B8ue170006EOS4_, symObjAddr: 0x4CC0, symBinAddr: 0x10001AC3C, symSize: 0x34 }
  - { offsetInCU: 0x9E68, offset: 0x4AFD6, size: 0x8, addend: 0x0, symName: __ZNSt3__16vectorISt4byteNS_9allocatorIS1_EEEC2B8ue170006EOS4_, symObjAddr: 0x4CF4, symBinAddr: 0x10001AC70, symSize: 0xC4 }
  - { offsetInCU: 0x57, offset: 0x4B0F8, size: 0x8, addend: 0x0, symName: __ZN3rtcL26DEFAULT_OPUS_AUDIO_PROFILEE, symObjAddr: 0x71270, symBinAddr: 0x100028060, symSize: 0x0 }
  - { offsetInCU: 0x71, offset: 0x4B112, size: 0x8, addend: 0x0, symName: __ZN3rtcL26DEFAULT_H264_VIDEO_PROFILEE, symObjAddr: 0x71288, symBinAddr: 0x100028078, symSize: 0x0 }
  - { offsetInCU: 0x1667A, offset: 0x6171B, size: 0x8, addend: 0x0, symName: __ZNSt3__134__libcpp_atomic_refcount_incrementB8ue170006IlEET_RS1_, symObjAddr: 0x930, symBinAddr: 0x10001B438, symSize: 0x30 }
  - { offsetInCU: 0x166AF, offset: 0x61750, size: 0x8, addend: 0x0, symName: __ZNSt3__14swapB8ue170006IPN3rtc5TrackEEENS_9enable_ifIXaasr21is_move_constructibleIT_EE5valuesr18is_move_assignableIS5_EE5valueEvE4typeERS5_S8_, symObjAddr: 0x960, symBinAddr: 0x10001B468, symSize: 0x3C }
  - { offsetInCU: 0x16700, offset: 0x617A1, size: 0x8, addend: 0x0, symName: __ZNSt3__14swapB8ue170006IPNS_19__shared_weak_countEEENS_9enable_ifIXaasr21is_move_constructibleIT_EE5valuesr18is_move_assignableIS4_EE5valueEvE4typeERS4_S7_, symObjAddr: 0x99C, symBinAddr: 0x10001B4A4, symSize: 0x3C }
  - { offsetInCU: 0x16751, offset: 0x617F2, size: 0x8, addend: 0x0, symName: __ZNSt3__134__libcpp_atomic_refcount_decrementB8ue170006IlEET_RS1_, symObjAddr: 0xAE4, symBinAddr: 0x10001B5EC, symSize: 0x30 }
  - { offsetInCU: 0x16786, offset: 0x61827, size: 0x8, addend: 0x0, symName: __ZNSt3__14swapB8ue170006IPN3rtc14RtcpSrReporterEEENS_9enable_ifIXaasr21is_move_constructibleIT_EE5valuesr18is_move_assignableIS5_EE5valueEvE4typeERS5_S8_, symObjAddr: 0xC28, symBinAddr: 0x10001B730, symSize: 0x3C }
  - { offsetInCU: 0x167D7, offset: 0x61878, size: 0x8, addend: 0x0, symName: __ZNSt3__14swapB8ue170006IP15ClientTrackDataEENS_9enable_ifIXaasr21is_move_constructibleIT_EE5valuesr18is_move_assignableIS4_EE5valueEvE4typeERS4_S7_, symObjAddr: 0xFB4, symBinAddr: 0x10001BABC, symSize: 0x3C }
  - { offsetInCU: 0x1A3D0, offset: 0x65471, size: 0x8, addend: 0x0, symName: __ZN15ClientTrackDataC2ENSt3__110shared_ptrIN3rtc5TrackEEENS1_INS2_14RtcpSrReporterEEE, symObjAddr: 0x34, symBinAddr: 0x10001ADDC, symSize: 0x64 }
  - { offsetInCU: 0x1A41A, offset: 0x654BB, size: 0x8, addend: 0x0, symName: __ZNSt3__110shared_ptrIN3rtc5TrackEEC1B8ue170006Ev, symObjAddr: 0x98, symBinAddr: 0x10001AE40, symSize: 0x2C }
  - { offsetInCU: 0x1A444, offset: 0x654E5, size: 0x8, addend: 0x0, symName: __ZNSt3__110shared_ptrIN3rtc14RtcpSrReporterEEC1B8ue170006Ev, symObjAddr: 0xC4, symBinAddr: 0x10001AE6C, symSize: 0x2C }
  - { offsetInCU: 0x1A46E, offset: 0x6550F, size: 0x8, addend: 0x0, symName: __ZNSt3__110shared_ptrIN3rtc5TrackEEaSB8ue170006ERKS3_, symObjAddr: 0xF0, symBinAddr: 0x10001AE98, symSize: 0x50 }
  - { offsetInCU: 0x1A4A3, offset: 0x65544, size: 0x8, addend: 0x0, symName: __ZNSt3__110shared_ptrIN3rtc14RtcpSrReporterEEaSB8ue170006ERKS3_, symObjAddr: 0x140, symBinAddr: 0x10001AEE8, symSize: 0x50 }
  - { offsetInCU: 0x1A4D8, offset: 0x65579, size: 0x8, addend: 0x0, symName: __ZN15ClientTrackDataC1ENSt3__110shared_ptrIN3rtc5TrackEEENS1_INS2_14RtcpSrReporterEEE, symObjAddr: 0x190, symBinAddr: 0x10001AF38, symSize: 0x3C }
  - { offsetInCU: 0x1A522, offset: 0x655C3, size: 0x8, addend: 0x0, symName: __ZN6Client8setStateENS_5StateE, symObjAddr: 0x1CC, symBinAddr: 0x10001AF74, symSize: 0x4C }
  - { offsetInCU: 0x1A58F, offset: 0x65630, size: 0x8, addend: 0x0, symName: __ZNSt3__111unique_lockINS_12shared_mutexEEC1B8ue170006ERS1_, symObjAddr: 0x218, symBinAddr: 0x10001AFC0, symSize: 0x34 }
  - { offsetInCU: 0x1A5C7, offset: 0x65668, size: 0x8, addend: 0x0, symName: __ZNSt3__111unique_lockINS_12shared_mutexEED1B8ue170006Ev, symObjAddr: 0x24C, symBinAddr: 0x10001AFF4, symSize: 0x2C }
  - { offsetInCU: 0x1A5F1, offset: 0x65692, size: 0x8, addend: 0x0, symName: __ZN6Client8getStateEv, symObjAddr: 0x278, symBinAddr: 0x10001B020, symSize: 0x4C }
  - { offsetInCU: 0x1A650, offset: 0x656F1, size: 0x8, addend: 0x0, symName: __ZNSt3__111shared_lockINS_12shared_mutexEEC1B8ue170006ERS1_, symObjAddr: 0x2C4, symBinAddr: 0x10001B06C, symSize: 0x34 }
  - { offsetInCU: 0x1A689, offset: 0x6572A, size: 0x8, addend: 0x0, symName: __ZNSt3__111shared_lockINS_12shared_mutexEED1B8ue170006Ev, symObjAddr: 0x2F8, symBinAddr: 0x10001B0A0, symSize: 0x2C }
  - { offsetInCU: 0x1A6F1, offset: 0x65792, size: 0x8, addend: 0x0, symName: __ZN11ClientTrackC2ENSt3__112basic_stringIcNS0_11char_traitsIcEENS0_9allocatorIcEEEENS0_10shared_ptrI15ClientTrackDataEE, symObjAddr: 0x324, symBinAddr: 0x10001B0CC, symSize: 0x98 }
  - { offsetInCU: 0x1A73B, offset: 0x657DC, size: 0x8, addend: 0x0, symName: __ZNSt3__110shared_ptrI15ClientTrackDataEC1B8ue170006Ev, symObjAddr: 0x3E8, symBinAddr: 0x10001B164, symSize: 0x2C }
  - { offsetInCU: 0x1A765, offset: 0x65806, size: 0x8, addend: 0x0, symName: __ZNSt3__110shared_ptrI15ClientTrackDataEaSB8ue170006ERKS2_, symObjAddr: 0x414, symBinAddr: 0x10001B190, symSize: 0x50 }
  - { offsetInCU: 0x1A79A, offset: 0x6583B, size: 0x8, addend: 0x0, symName: __ZNSt3__110shared_ptrI15ClientTrackDataED1B8ue170006Ev, symObjAddr: 0x464, symBinAddr: 0x10001B1E0, symSize: 0x2C }
  - { offsetInCU: 0x1A7C4, offset: 0x65865, size: 0x8, addend: 0x0, symName: __ZN11ClientTrackC1ENSt3__112basic_stringIcNS0_11char_traitsIcEENS0_9allocatorIcEEEENS0_10shared_ptrI15ClientTrackDataEE, symObjAddr: 0x490, symBinAddr: 0x10001B20C, symSize: 0x3C }
  - { offsetInCU: 0x1A80D, offset: 0x658AE, size: 0x8, addend: 0x0, symName: __Z25currentTimeInMicroSecondsv, symObjAddr: 0x4CC, symBinAddr: 0x10001B248, symSize: 0x3C }
  - { offsetInCU: 0x1A83A, offset: 0x658DB, size: 0x8, addend: 0x0, symName: __ZNSt3__110shared_ptrIN3rtc5TrackEEC2B8ue170006Ev, symObjAddr: 0x508, symBinAddr: 0x10001B284, symSize: 0x1C }
  - { offsetInCU: 0x1A864, offset: 0x65905, size: 0x8, addend: 0x0, symName: __ZNSt3__110shared_ptrIN3rtc14RtcpSrReporterEEC2B8ue170006Ev, symObjAddr: 0x524, symBinAddr: 0x10001B2A0, symSize: 0x1C }
  - { offsetInCU: 0x1A88E, offset: 0x6592F, size: 0x8, addend: 0x0, symName: __ZNSt3__110shared_ptrI15ClientTrackDataEC2B8ue170006Ev, symObjAddr: 0x540, symBinAddr: 0x10001B2BC, symSize: 0x1C }
  - { offsetInCU: 0x1A8B8, offset: 0x65959, size: 0x8, addend: 0x0, symName: __ZNSt3__110shared_ptrIN3rtc5TrackEEC1B8ue170006ERKS3_, symObjAddr: 0x7D0, symBinAddr: 0x10001B2D8, symSize: 0x34 }
  - { offsetInCU: 0x1A8F1, offset: 0x65992, size: 0x8, addend: 0x0, symName: __ZNSt3__110shared_ptrIN3rtc5TrackEE4swapB8ue170006ERS3_, symObjAddr: 0x804, symBinAddr: 0x10001B30C, symSize: 0x44 }
  - { offsetInCU: 0x1A926, offset: 0x659C7, size: 0x8, addend: 0x0, symName: __ZNSt3__110shared_ptrIN3rtc5TrackEED1B8ue170006Ev, symObjAddr: 0x848, symBinAddr: 0x10001B350, symSize: 0x2C }
  - { offsetInCU: 0x1A950, offset: 0x659F1, size: 0x8, addend: 0x0, symName: __ZNSt3__110shared_ptrIN3rtc5TrackEEC2B8ue170006ERKS3_, symObjAddr: 0x874, symBinAddr: 0x10001B37C, symSize: 0x70 }
  - { offsetInCU: 0x1A989, offset: 0x65A2A, size: 0x8, addend: 0x0, symName: __ZNSt3__119__shared_weak_count12__add_sharedB8ue170006Ev, symObjAddr: 0x8E4, symBinAddr: 0x10001B3EC, symSize: 0x24 }
  - { offsetInCU: 0x1A9AF, offset: 0x65A50, size: 0x8, addend: 0x0, symName: __ZNSt3__114__shared_count12__add_sharedB8ue170006Ev, symObjAddr: 0x908, symBinAddr: 0x10001B410, symSize: 0x28 }
  - { offsetInCU: 0x1A9D5, offset: 0x65A76, size: 0x8, addend: 0x0, symName: __ZNSt3__110shared_ptrIN3rtc5TrackEED2B8ue170006Ev, symObjAddr: 0x9D8, symBinAddr: 0x10001B4E0, symSize: 0x54 }
  - { offsetInCU: 0x1A9FF, offset: 0x65AA0, size: 0x8, addend: 0x0, symName: __ZNSt3__119__shared_weak_count16__release_sharedB8ue170006Ev, symObjAddr: 0xA2C, symBinAddr: 0x10001B534, symSize: 0x3C }
  - { offsetInCU: 0x1AA25, offset: 0x65AC6, size: 0x8, addend: 0x0, symName: __ZNSt3__114__shared_count16__release_sharedB8ue170006Ev, symObjAddr: 0xA68, symBinAddr: 0x10001B570, symSize: 0x7C }
  - { offsetInCU: 0x1AA4B, offset: 0x65AEC, size: 0x8, addend: 0x0, symName: __ZNSt3__110shared_ptrIN3rtc14RtcpSrReporterEEC1B8ue170006ERKS3_, symObjAddr: 0xB14, symBinAddr: 0x10001B61C, symSize: 0x34 }
  - { offsetInCU: 0x1AA84, offset: 0x65B25, size: 0x8, addend: 0x0, symName: __ZNSt3__110shared_ptrIN3rtc14RtcpSrReporterEE4swapB8ue170006ERS3_, symObjAddr: 0xB48, symBinAddr: 0x10001B650, symSize: 0x44 }
  - { offsetInCU: 0x1AAB9, offset: 0x65B5A, size: 0x8, addend: 0x0, symName: __ZNSt3__110shared_ptrIN3rtc14RtcpSrReporterEED1B8ue170006Ev, symObjAddr: 0xB8C, symBinAddr: 0x10001B694, symSize: 0x2C }
  - { offsetInCU: 0x1AAE3, offset: 0x65B84, size: 0x8, addend: 0x0, symName: __ZNSt3__110shared_ptrIN3rtc14RtcpSrReporterEEC2B8ue170006ERKS3_, symObjAddr: 0xBB8, symBinAddr: 0x10001B6C0, symSize: 0x70 }
  - { offsetInCU: 0x1AB1C, offset: 0x65BBD, size: 0x8, addend: 0x0, symName: __ZNSt3__110shared_ptrIN3rtc14RtcpSrReporterEED2B8ue170006Ev, symObjAddr: 0xC64, symBinAddr: 0x10001B76C, symSize: 0x54 }
  - { offsetInCU: 0x1AB46, offset: 0x65BE7, size: 0x8, addend: 0x0, symName: __ZNSt3__111unique_lockINS_12shared_mutexEEC2B8ue170006ERS1_, symObjAddr: 0xCB8, symBinAddr: 0x10001B7C0, symSize: 0x44 }
  - { offsetInCU: 0x1AB7E, offset: 0x65C1F, size: 0x8, addend: 0x0, symName: __ZNSt3__112shared_mutex4lockB8ue170006Ev, symObjAddr: 0xCFC, symBinAddr: 0x10001B804, symSize: 0x24 }
  - { offsetInCU: 0x1ABA4, offset: 0x65C45, size: 0x8, addend: 0x0, symName: __ZNSt3__111unique_lockINS_12shared_mutexEED2B8ue170006Ev, symObjAddr: 0xD20, symBinAddr: 0x10001B828, symSize: 0x54 }
  - { offsetInCU: 0x1ABCE, offset: 0x65C6F, size: 0x8, addend: 0x0, symName: __ZNSt3__112shared_mutex6unlockB8ue170006Ev, symObjAddr: 0xD74, symBinAddr: 0x10001B87C, symSize: 0x24 }
  - { offsetInCU: 0x1ABF4, offset: 0x65C95, size: 0x8, addend: 0x0, symName: __ZNSt3__111shared_lockINS_12shared_mutexEEC2B8ue170006ERS1_, symObjAddr: 0xD98, symBinAddr: 0x10001B8A0, symSize: 0x44 }
  - { offsetInCU: 0x1AC2D, offset: 0x65CCE, size: 0x8, addend: 0x0, symName: __ZNSt3__112shared_mutex11lock_sharedB8ue170006Ev, symObjAddr: 0xDDC, symBinAddr: 0x10001B8E4, symSize: 0x24 }
  - { offsetInCU: 0x1AC53, offset: 0x65CF4, size: 0x8, addend: 0x0, symName: __ZNSt3__111shared_lockINS_12shared_mutexEED2B8ue170006Ev, symObjAddr: 0xE00, symBinAddr: 0x10001B908, symSize: 0x54 }
  - { offsetInCU: 0x1AC7D, offset: 0x65D1E, size: 0x8, addend: 0x0, symName: __ZNSt3__112shared_mutex13unlock_sharedB8ue170006Ev, symObjAddr: 0xE54, symBinAddr: 0x10001B95C, symSize: 0x24 }
  - { offsetInCU: 0x1ACA3, offset: 0x65D44, size: 0x8, addend: 0x0, symName: __ZNSt3__110shared_ptrI15ClientTrackDataED2B8ue170006Ev, symObjAddr: 0xE78, symBinAddr: 0x10001B980, symSize: 0x54 }
  - { offsetInCU: 0x1ACCD, offset: 0x65D6E, size: 0x8, addend: 0x0, symName: __ZNSt3__110shared_ptrI15ClientTrackDataEC1B8ue170006ERKS2_, symObjAddr: 0xECC, symBinAddr: 0x10001B9D4, symSize: 0x34 }
  - { offsetInCU: 0x1AD06, offset: 0x65DA7, size: 0x8, addend: 0x0, symName: __ZNSt3__110shared_ptrI15ClientTrackDataE4swapB8ue170006ERS2_, symObjAddr: 0xF00, symBinAddr: 0x10001BA08, symSize: 0x44 }
  - { offsetInCU: 0x1AD3B, offset: 0x65DDC, size: 0x8, addend: 0x0, symName: __ZNSt3__110shared_ptrI15ClientTrackDataEC2B8ue170006ERKS2_, symObjAddr: 0xF44, symBinAddr: 0x10001BA4C, symSize: 0x70 }
  - { offsetInCU: 0x476A, offset: 0x6A606, size: 0x8, addend: 0x0, symName: _main, symObjAddr: 0x0, symBinAddr: 0x10001BBA0, symSize: 0x7C4 }
  - { offsetInCU: 0x57, offset: 0x6C99E, size: 0x8, addend: 0x0, symName: __ZN3rtcL26DEFAULT_OPUS_AUDIO_PROFILEE, symObjAddr: 0x158C0, symBinAddr: 0x100028090, symSize: 0x0 }
  - { offsetInCU: 0x71, offset: 0x6C9B8, size: 0x8, addend: 0x0, symName: __ZN3rtcL26DEFAULT_H264_VIDEO_PROFILEE, symObjAddr: 0x158D8, symBinAddr: 0x1000280A8, symSize: 0x0 }
  - { offsetInCU: 0x5561, offset: 0x71EA8, size: 0x8, addend: 0x0, symName: __ZN14OPUSFileParserC2ENSt3__112basic_stringIcNS0_11char_traitsIcEENS0_9allocatorIcEEEEbj, symObjAddr: 0x34, symBinAddr: 0x10001C364, symSize: 0xDC }
  - { offsetInCU: 0x55B8, offset: 0x71EFF, size: 0x8, addend: 0x0, symName: __ZN14OPUSFileParserC1ENSt3__112basic_stringIcNS0_11char_traitsIcEENS0_9allocatorIcEEEEbj, symObjAddr: 0x110, symBinAddr: 0x10001C440, symSize: 0x50 }
  - { offsetInCU: 0x560F, offset: 0x71F56, size: 0x8, addend: 0x0, symName: __ZN14OPUSFileParserD1Ev, symObjAddr: 0x160, symBinAddr: 0x10001C490, symSize: 0x2C }
  - { offsetInCU: 0x563B, offset: 0x71F82, size: 0x8, addend: 0x0, symName: __ZN14OPUSFileParserD0Ev, symObjAddr: 0x18C, symBinAddr: 0x10001C4BC, symSize: 0x30 }
  - { offsetInCU: 0x5667, offset: 0x71FAE, size: 0x8, addend: 0x0, symName: __ZN14OPUSFileParserD2Ev, symObjAddr: 0x370, symBinAddr: 0x10001C4EC, symSize: 0x2C }
  - { offsetInCU: 0x57, offset: 0x72036, size: 0x8, addend: 0x0, symName: __ZN3rtcL26DEFAULT_OPUS_AUDIO_PROFILEE, symObjAddr: 0x56EA0, symBinAddr: 0x1000280C0, symSize: 0x0 }
  - { offsetInCU: 0x71, offset: 0x72050, size: 0x8, addend: 0x0, symName: __ZN3rtcL26DEFAULT_H264_VIDEO_PROFILEE, symObjAddr: 0x56EB8, symBinAddr: 0x1000280D8, symSize: 0x0 }
  - { offsetInCU: 0x2011, offset: 0x73FF0, size: 0x8, addend: 0x0, symName: __ZNSt3__119piecewise_constructE, symObjAddr: 0x71B9, symBinAddr: 0x100022D2E, symSize: 0x0 }
  - { offsetInCU: 0x36A0, offset: 0x7567F, size: 0x8, addend: 0x0, symName: '__ZNSt3__110__function10__not_nullB8ue170006IZN6Stream10sendSampleEvE3$_0EEbRKT_', symObjAddr: 0x3864, symBinAddr: 0x10001DFFC, symSize: 0x18 }
  - { offsetInCU: 0x36D3, offset: 0x756B2, size: 0x8, addend: 0x0, symName: '__ZNSt3__110__function10__not_nullB8ue170006IZN6Stream5startEvE3$_1EEbRKT_', symObjAddr: 0x5484, symBinAddr: 0x10001FC1C, symSize: 0x18 }
  - { offsetInCU: 0x80D5, offset: 0x7A0B4, size: 0x8, addend: 0x0, symName: __ZNSt3__14swapB8ue170006IP12StreamSourceEENS_9enable_ifIXaasr21is_move_constructibleIT_EE5valuesr18is_move_assignableIS4_EE5valueEvE4typeERS4_S7_, symObjAddr: 0x25E4, symBinAddr: 0x10001DD30, symSize: 0x3C }
  - { offsetInCU: 0x8324, offset: 0x7A303, size: 0x8, addend: 0x0, symName: '__ZNSt3__116forward_as_tupleB8ue170006IJZN6Stream10sendSampleEvE3$_0EEENS_5tupleIJDpOT_EEES6_', symObjAddr: 0x3DDC, symBinAddr: 0x10001E574, symSize: 0x2C }
  - { offsetInCU: 0x835E, offset: 0x7A33D, size: 0x8, addend: 0x0, symName: '__ZNSt3__116forward_as_tupleB8ue170006IJNS_9allocatorIZN6Stream10sendSampleEvE3$_0EEEEENS_5tupleIJDpOT_EEES8_', symObjAddr: 0x3E08, symBinAddr: 0x10001E5A0, symSize: 0x2C }
  - { offsetInCU: 0x83C2, offset: 0x7A3A1, size: 0x8, addend: 0x0, symName: '__ZNSt3__13getB8ue170006ILm0EJOZN6Stream10sendSampleEvE3$_0EEERNS_13tuple_elementIXT_ENS_5tupleIJDpT0_EEEE4typeERS8_', symObjAddr: 0x4120, symBinAddr: 0x10001E8B8, symSize: 0x24 }
  - { offsetInCU: 0x8405, offset: 0x7A3E4, size: 0x8, addend: 0x0, symName: '__ZNSt3__13getB8ue170006ILm0EJONS_9allocatorIZN6Stream10sendSampleEvE3$_0EEEEERNS_13tuple_elementIXT_ENS_5tupleIJDpT0_EEEE4typeERSA_', symObjAddr: 0x415C, symBinAddr: 0x10001E8F4, symSize: 0x24 }
  - { offsetInCU: 0x8951, offset: 0x7A930, size: 0x8, addend: 0x0, symName: '__ZNSt3__116forward_as_tupleB8ue170006IJRKZN6Stream10sendSampleEvE3$_0EEENS_5tupleIJDpOT_EEES8_', symObjAddr: 0x46F0, symBinAddr: 0x10001EE88, symSize: 0x2C }
  - { offsetInCU: 0x89A0, offset: 0x7A97F, size: 0x8, addend: 0x0, symName: '__ZNSt3__13getB8ue170006ILm0EJRKZN6Stream10sendSampleEvE3$_0EEERNS_13tuple_elementIXT_ENS_5tupleIJDpT0_EEEE4typeERS9_', symObjAddr: 0x48E0, symBinAddr: 0x10001F078, symSize: 0x24 }
  - { offsetInCU: 0x89E3, offset: 0x7A9C2, size: 0x8, addend: 0x0, symName: '__ZNSt3__116forward_as_tupleB8ue170006IJRKNS_9allocatorIZN6Stream10sendSampleEvE3$_0EEEEENS_5tupleIJDpOT_EEESA_', symObjAddr: 0x4C3C, symBinAddr: 0x10001F3D4, symSize: 0x2C }
  - { offsetInCU: 0x8A32, offset: 0x7AA11, size: 0x8, addend: 0x0, symName: '__ZNSt3__13getB8ue170006ILm0EJRKNS_9allocatorIZN6Stream10sendSampleEvE3$_0EEEEERNS_13tuple_elementIXT_ENS_5tupleIJDpT0_EEEE4typeERSB_', symObjAddr: 0x4E20, symBinAddr: 0x10001F5B8, symSize: 0x24 }
  - { offsetInCU: 0x8AC7, offset: 0x7AAA6, size: 0x8, addend: 0x0, symName: '__ZNSt3__18__invokeB8ue170006IRZN6Stream10sendSampleEvE3$_0JEEEDTclclsr3stdE7declvalIT_EEspclsr3stdE7declvalIT0_EEEEOS4_DpOS5_', symObjAddr: 0x4EDC, symBinAddr: 0x10001F674, symSize: 0x24 }
  - { offsetInCU: 0x8C6D, offset: 0x7AC4C, size: 0x8, addend: 0x0, symName: '__ZNSt3__116forward_as_tupleB8ue170006IJZN6Stream5startEvE3$_1EEENS_5tupleIJDpOT_EEES6_', symObjAddr: 0x59A4, symBinAddr: 0x10002013C, symSize: 0x2C }
  - { offsetInCU: 0x8CA7, offset: 0x7AC86, size: 0x8, addend: 0x0, symName: '__ZNSt3__116forward_as_tupleB8ue170006IJNS_9allocatorIZN6Stream5startEvE3$_1EEEEENS_5tupleIJDpOT_EEES8_', symObjAddr: 0x59D0, symBinAddr: 0x100020168, symSize: 0x2C }
  - { offsetInCU: 0x8D0B, offset: 0x7ACEA, size: 0x8, addend: 0x0, symName: '__ZNSt3__13getB8ue170006ILm0EJOZN6Stream5startEvE3$_1EEERNS_13tuple_elementIXT_ENS_5tupleIJDpT0_EEEE4typeERS8_', symObjAddr: 0x5CE8, symBinAddr: 0x100020480, symSize: 0x24 }
  - { offsetInCU: 0x8D4E, offset: 0x7AD2D, size: 0x8, addend: 0x0, symName: '__ZNSt3__13getB8ue170006ILm0EJONS_9allocatorIZN6Stream5startEvE3$_1EEEEERNS_13tuple_elementIXT_ENS_5tupleIJDpT0_EEEE4typeERSA_', symObjAddr: 0x5D24, symBinAddr: 0x1000204BC, symSize: 0x24 }
  - { offsetInCU: 0x929A, offset: 0x7B279, size: 0x8, addend: 0x0, symName: '__ZNSt3__116forward_as_tupleB8ue170006IJRKZN6Stream5startEvE3$_1EEENS_5tupleIJDpOT_EEES8_', symObjAddr: 0x62B8, symBinAddr: 0x100020A50, symSize: 0x2C }
  - { offsetInCU: 0x92E9, offset: 0x7B2C8, size: 0x8, addend: 0x0, symName: '__ZNSt3__13getB8ue170006ILm0EJRKZN6Stream5startEvE3$_1EEERNS_13tuple_elementIXT_ENS_5tupleIJDpT0_EEEE4typeERS9_', symObjAddr: 0x64A8, symBinAddr: 0x100020C40, symSize: 0x24 }
  - { offsetInCU: 0x932C, offset: 0x7B30B, size: 0x8, addend: 0x0, symName: '__ZNSt3__116forward_as_tupleB8ue170006IJRKNS_9allocatorIZN6Stream5startEvE3$_1EEEEENS_5tupleIJDpOT_EEESA_', symObjAddr: 0x6804, symBinAddr: 0x100020F9C, symSize: 0x2C }
  - { offsetInCU: 0x937B, offset: 0x7B35A, size: 0x8, addend: 0x0, symName: '__ZNSt3__13getB8ue170006ILm0EJRKNS_9allocatorIZN6Stream5startEvE3$_1EEEEERNS_13tuple_elementIXT_ENS_5tupleIJDpT0_EEEE4typeERSB_', symObjAddr: 0x69E8, symBinAddr: 0x100021180, symSize: 0x24 }
  - { offsetInCU: 0x93BE, offset: 0x7B39D, size: 0x8, addend: 0x0, symName: '__ZNSt3__18__invokeB8ue170006IRZN6Stream5startEvE3$_1JEEEDTclclsr3stdE7declvalIT_EEspclsr3stdE7declvalIT0_EEEEOS4_DpOS5_', symObjAddr: 0x6AA4, symBinAddr: 0x10002123C, symSize: 0x24 }
  - { offsetInCU: 0x9BD6, offset: 0x7BBB5, size: 0x8, addend: 0x0, symName: __ZN6Stream10sendSampleEv, symObjAddr: 0x704, symBinAddr: 0x10001CC58, symSize: 0x23C }
  - { offsetInCU: 0x9E8C, offset: 0x7BE6B, size: 0x8, addend: 0x0, symName: __ZN6Stream5startEv, symObjAddr: 0xD28, symBinAddr: 0x10001D1F0, symSize: 0x160 }
  - { offsetInCU: 0xBFA6, offset: 0x7DF85, size: 0x8, addend: 0x0, symName: __ZN6StreamC2ENSt3__110shared_ptrI12StreamSourceEES3_, symObjAddr: 0x34, symBinAddr: 0x10001C5C0, symSize: 0x140 }
  - { offsetInCU: 0xBFF0, offset: 0x7DFCF, size: 0x8, addend: 0x0, symName: __ZNSt3__123enable_shared_from_thisI6StreamEC2B8ue170006Ev, symObjAddr: 0x174, symBinAddr: 0x10001C700, symSize: 0x2C }
  - { offsetInCU: 0xC01A, offset: 0x7DFF9, size: 0x8, addend: 0x0, symName: __ZNSt3__110shared_ptrI12StreamSourceEC1B8ue170006ERKS2_, symObjAddr: 0x1CC, symBinAddr: 0x10001C72C, symSize: 0x34 }
  - { offsetInCU: 0xC053, offset: 0x7E032, size: 0x8, addend: 0x0, symName: __ZN3rtc21synchronized_callbackIJN6Stream16StreamSourceTypeEyNSt3__16vectorISt4byteNS3_9allocatorIS5_EEEEEEC1Ev, symObjAddr: 0x200, symBinAddr: 0x10001C760, symSize: 0x2C }
  - { offsetInCU: 0xC07D, offset: 0x7E05C, size: 0x8, addend: 0x0, symName: __ZNSt3__110shared_ptrI12StreamSourceED1B8ue170006Ev, symObjAddr: 0x22C, symBinAddr: 0x10001C78C, symSize: 0x2C }
  - { offsetInCU: 0xC0A7, offset: 0x7E086, size: 0x8, addend: 0x0, symName: __ZNSt3__123enable_shared_from_thisI6StreamED2B8ue170006Ev, symObjAddr: 0x258, symBinAddr: 0x10001C7B8, symSize: 0x2C }
  - { offsetInCU: 0xC0D1, offset: 0x7E0B0, size: 0x8, addend: 0x0, symName: __ZN6StreamC1ENSt3__110shared_ptrI12StreamSourceEES3_, symObjAddr: 0x284, symBinAddr: 0x10001C7E4, symSize: 0x3C }
  - { offsetInCU: 0xC11B, offset: 0x7E0FA, size: 0x8, addend: 0x0, symName: __ZN6StreamD2Ev, symObjAddr: 0x2C0, symBinAddr: 0x10001C820, symSize: 0x78 }
  - { offsetInCU: 0xC147, offset: 0x7E126, size: 0x8, addend: 0x0, symName: __ZN6Stream4stopEv, symObjAddr: 0x338, symBinAddr: 0x10001C898, symSize: 0xCC }
  - { offsetInCU: 0xC17D, offset: 0x7E15C, size: 0x8, addend: 0x0, symName: __ZN3rtc21synchronized_callbackIJN6Stream16StreamSourceTypeEyNSt3__16vectorISt4byteNS3_9allocatorIS5_EEEEEED1Ev, symObjAddr: 0x410, symBinAddr: 0x10001C964, symSize: 0x2C }
  - { offsetInCU: 0xC1A7, offset: 0x7E186, size: 0x8, addend: 0x0, symName: __ZN6StreamD1Ev, symObjAddr: 0x43C, symBinAddr: 0x10001C990, symSize: 0x2C }
  - { offsetInCU: 0xC1D3, offset: 0x7E1B2, size: 0x8, addend: 0x0, symName: __ZN6Stream22unsafePrepareForSampleEv, symObjAddr: 0x468, symBinAddr: 0x10001C9BC, symSize: 0x1CC }
  - { offsetInCU: 0xC260, offset: 0x7E23F, size: 0x8, addend: 0x0, symName: __ZNSt3__110shared_ptrI12StreamSourceEC1B8ue170006Ev, symObjAddr: 0x634, symBinAddr: 0x10001CB88, symSize: 0x2C }
  - { offsetInCU: 0xC28A, offset: 0x7E269, size: 0x8, addend: 0x0, symName: __ZNKSt3__110shared_ptrI12StreamSourceEptB8ue170006Ev, symObjAddr: 0x660, symBinAddr: 0x10001CBB4, symSize: 0x18 }
  - { offsetInCU: 0xC2B0, offset: 0x7E28F, size: 0x8, addend: 0x0, symName: __ZNSt3__110shared_ptrI12StreamSourceEaSB8ue170006ERKS2_, symObjAddr: 0x678, symBinAddr: 0x10001CBCC, symSize: 0x50 }
  - { offsetInCU: 0xC2EA, offset: 0x7E2C9, size: 0x8, addend: 0x0, symName: __ZNSt3__14pairINS_10shared_ptrI12StreamSourceEEN6Stream16StreamSourceTypeEEC1B8ue170006IRS3_RS5_LPv0EEEOT_OT0_, symObjAddr: 0x6C8, symBinAddr: 0x10001CC1C, symSize: 0x3C }
  - { offsetInCU: 0xC361, offset: 0x7E340, size: 0x8, addend: 0x0, symName: __ZNSt3__110lock_guardINS_5mutexEEC1B8ue170006ERS1_, symObjAddr: 0x940, symBinAddr: 0x10001CE94, symSize: 0x34 }
  - { offsetInCU: 0xC399, offset: 0x7E378, size: 0x8, addend: 0x0, symName: __ZNK3rtc21synchronized_callbackIJN6Stream16StreamSourceTypeEyNSt3__16vectorISt4byteNS3_9allocatorIS5_EEEEEEclES2_yS8_, symObjAddr: 0x974, symBinAddr: 0x10001CEC8, symSize: 0xC4 }
  - { offsetInCU: 0xC3F8, offset: 0x7E3D7, size: 0x8, addend: 0x0, symName: '__ZNSt3__18functionIFvvEEC1IZN6Stream10sendSampleEvE3$_0vEET_', symObjAddr: 0xA98, symBinAddr: 0x10001CF8C, symSize: 0x34 }
  - { offsetInCU: 0xC43D, offset: 0x7E41C, size: 0x8, addend: 0x0, symName: __ZNSt3__14pairINS_10shared_ptrI12StreamSourceEEN6Stream16StreamSourceTypeEED1Ev, symObjAddr: 0xAF8, symBinAddr: 0x10001CFC0, symSize: 0x2C }
  - { offsetInCU: 0xC469, offset: 0x7E448, size: 0x8, addend: 0x0, symName: __ZNSt3__110lock_guardINS_5mutexEED1B8ue170006Ev, symObjAddr: 0xB24, symBinAddr: 0x10001CFEC, symSize: 0x2C }
  - { offsetInCU: 0xC493, offset: 0x7E472, size: 0x8, addend: 0x0, symName: __ZN6Stream8onSampleENSt3__18functionIFvNS_16StreamSourceTypeEyNS0_6vectorISt4byteNS0_9allocatorIS4_EEEEEEE, symObjAddr: 0xB50, symBinAddr: 0x10001D018, symSize: 0xA8 }
  - { offsetInCU: 0xC4CA, offset: 0x7E4A9, size: 0x8, addend: 0x0, symName: __ZNSt3__18functionIFvN6Stream16StreamSourceTypeEyNS_6vectorISt4byteNS_9allocatorIS4_EEEEEEC1ERKS9_, symObjAddr: 0xBF8, symBinAddr: 0x10001D0C0, symSize: 0x34 }
  - { offsetInCU: 0xC505, offset: 0x7E4E4, size: 0x8, addend: 0x0, symName: __ZN3rtc21synchronized_callbackIJN6Stream16StreamSourceTypeEyNSt3__16vectorISt4byteNS3_9allocatorIS5_EEEEEEaSENS3_8functionIFvS2_yS8_EEE, symObjAddr: 0xC2C, symBinAddr: 0x10001D0F4, symSize: 0xD0 }
  - { offsetInCU: 0xC548, offset: 0x7E527, size: 0x8, addend: 0x0, symName: __ZNSt3__18functionIFvN6Stream16StreamSourceTypeEyNS_6vectorISt4byteNS_9allocatorIS4_EEEEEED1Ev, symObjAddr: 0xCFC, symBinAddr: 0x10001D1C4, symSize: 0x2C }
  - { offsetInCU: 0xC574, offset: 0x7E553, size: 0x8, addend: 0x0, symName: '__ZNSt3__18functionIFvvEEC1IZN6Stream5startEvE3$_1vEET_', symObjAddr: 0xE88, symBinAddr: 0x10001D350, symSize: 0x34 }
  - { offsetInCU: 0xC5B9, offset: 0x7E598, size: 0x8, addend: 0x0, symName: __ZNSt3__18weak_ptrI6StreamEC1Ev, symObjAddr: 0xEBC, symBinAddr: 0x10001D384, symSize: 0x2C }
  - { offsetInCU: 0xC5E5, offset: 0x7E5C4, size: 0x8, addend: 0x0, symName: __ZNSt3__18weak_ptrI6StreamEC2Ev, symObjAddr: 0xEE8, symBinAddr: 0x10001D3B0, symSize: 0x1C }
  - { offsetInCU: 0xC611, offset: 0x7E5F0, size: 0x8, addend: 0x0, symName: __ZN3rtc21synchronized_callbackIJN6Stream16StreamSourceTypeEyNSt3__16vectorISt4byteNS3_9allocatorIS5_EEEEEEC2Ev, symObjAddr: 0xF48, symBinAddr: 0x10001D3CC, symSize: 0x78 }
  - { offsetInCU: 0xC63B, offset: 0x7E61A, size: 0x8, addend: 0x0, symName: __ZNSt3__18functionIFvN6Stream16StreamSourceTypeEyNS_6vectorISt4byteNS_9allocatorIS4_EEEEEEC1B8ue170006Ev, symObjAddr: 0xFC0, symBinAddr: 0x10001D444, symSize: 0x2C }
  - { offsetInCU: 0xC665, offset: 0x7E644, size: 0x8, addend: 0x0, symName: __ZN3rtc21synchronized_callbackIJN6Stream16StreamSourceTypeEyNSt3__16vectorISt4byteNS3_9allocatorIS5_EEEEEED0Ev, symObjAddr: 0xFEC, symBinAddr: 0x10001D470, symSize: 0x30 }
  - { offsetInCU: 0xC68F, offset: 0x7E66E, size: 0x8, addend: 0x0, symName: __ZN3rtc21synchronized_callbackIJN6Stream16StreamSourceTypeEyNSt3__16vectorISt4byteNS3_9allocatorIS5_EEEEEE3setENS3_8functionIFvS2_yS8_EEE, symObjAddr: 0x101C, symBinAddr: 0x10001D4A0, symSize: 0x30 }
  - { offsetInCU: 0xC6C4, offset: 0x7E6A3, size: 0x8, addend: 0x0, symName: __ZNK3rtc21synchronized_callbackIJN6Stream16StreamSourceTypeEyNSt3__16vectorISt4byteNS3_9allocatorIS5_EEEEEE4callES2_yS8_, symObjAddr: 0x104C, symBinAddr: 0x10001D4D0, symSize: 0xE0 }
  - { offsetInCU: 0xC715, offset: 0x7E6F4, size: 0x8, addend: 0x0, symName: __ZNSt3__18functionIFvN6Stream16StreamSourceTypeEyNS_6vectorISt4byteNS_9allocatorIS4_EEEEEEC2B8ue170006Ev, symObjAddr: 0x112C, symBinAddr: 0x10001D5B0, symSize: 0x2C }
  - { offsetInCU: 0xC73F, offset: 0x7E71E, size: 0x8, addend: 0x0, symName: __ZNSt3__110__function12__value_funcIFvN6Stream16StreamSourceTypeEyNS_6vectorISt4byteNS_9allocatorIS5_EEEEEEC1B8ue170006Ev, symObjAddr: 0x1158, symBinAddr: 0x10001D5DC, symSize: 0x2C }
  - { offsetInCU: 0xC769, offset: 0x7E748, size: 0x8, addend: 0x0, symName: __ZNSt3__110__function12__value_funcIFvN6Stream16StreamSourceTypeEyNS_6vectorISt4byteNS_9allocatorIS5_EEEEEEC2B8ue170006Ev, symObjAddr: 0x1184, symBinAddr: 0x10001D608, symSize: 0x18 }
  - { offsetInCU: 0xC793, offset: 0x7E772, size: 0x8, addend: 0x0, symName: __ZNSt3__18functionIFvN6Stream16StreamSourceTypeEyNS_6vectorISt4byteNS_9allocatorIS4_EEEEEEaSEOS9_, symObjAddr: 0x119C, symBinAddr: 0x10001D620, symSize: 0x3C }
  - { offsetInCU: 0xC7CA, offset: 0x7E7A9, size: 0x8, addend: 0x0, symName: __ZNSt3__110__function12__value_funcIFvN6Stream16StreamSourceTypeEyNS_6vectorISt4byteNS_9allocatorIS5_EEEEEEaSB8ue170006EOSA_, symObjAddr: 0x11D8, symBinAddr: 0x10001D65C, symSize: 0xC0 }
  - { offsetInCU: 0xC7FF, offset: 0x7E7DE, size: 0x8, addend: 0x0, symName: __ZNSt3__110__function12__value_funcIFvN6Stream16StreamSourceTypeEyNS_6vectorISt4byteNS_9allocatorIS5_EEEEEEaSB8ue170006EDn, symObjAddr: 0x1298, symBinAddr: 0x10001D71C, symSize: 0x8C }
  - { offsetInCU: 0xC840, offset: 0x7E81F, size: 0x8, addend: 0x0, symName: __ZNSt3__110__function12__value_funcIFvN6Stream16StreamSourceTypeEyNS_6vectorISt4byteNS_9allocatorIS5_EEEEEE9__as_baseB8ue170006EPv, symObjAddr: 0x1324, symBinAddr: 0x10001D7A8, symSize: 0x14 }
  - { offsetInCU: 0xC864, offset: 0x7E843, size: 0x8, addend: 0x0, symName: __ZNKSt3__18functionIFvN6Stream16StreamSourceTypeEyNS_6vectorISt4byteNS_9allocatorIS4_EEEEEEcvbB8ue170006Ev, symObjAddr: 0x1338, symBinAddr: 0x10001D7BC, symSize: 0x28 }
  - { offsetInCU: 0xC88A, offset: 0x7E869, size: 0x8, addend: 0x0, symName: __ZNKSt3__18functionIFvN6Stream16StreamSourceTypeEyNS_6vectorISt4byteNS_9allocatorIS4_EEEEEEclES2_yS7_, symObjAddr: 0x1360, symBinAddr: 0x10001D7E4, symSize: 0x44 }
  - { offsetInCU: 0xC8E0, offset: 0x7E8BF, size: 0x8, addend: 0x0, symName: __ZNKSt3__110__function12__value_funcIFvN6Stream16StreamSourceTypeEyNS_6vectorISt4byteNS_9allocatorIS5_EEEEEEcvbB8ue170006Ev, symObjAddr: 0x13D8, symBinAddr: 0x10001D828, symSize: 0x24 }
  - { offsetInCU: 0xC906, offset: 0x7E8E5, size: 0x8, addend: 0x0, symName: __ZNKSt3__110__function12__value_funcIFvN6Stream16StreamSourceTypeEyNS_6vectorISt4byteNS_9allocatorIS5_EEEEEEclB8ue170006EOS3_OyOS8_, symObjAddr: 0x13FC, symBinAddr: 0x10001D84C, symSize: 0x68 }
  - { offsetInCU: 0xC959, offset: 0x7E938, size: 0x8, addend: 0x0, symName: __ZNSt3__110shared_ptrI12StreamSourceEC2B8ue170006Ev, symObjAddr: 0x17F0, symBinAddr: 0x10001D8B4, symSize: 0x1C }
  - { offsetInCU: 0xC983, offset: 0x7E962, size: 0x8, addend: 0x0, symName: __ZNSt3__14pairINS_10shared_ptrI12StreamSourceEEN6Stream16StreamSourceTypeEEC2B8ue170006IRS3_RS5_LPv0EEEOT_OT0_, symObjAddr: 0x180C, symBinAddr: 0x10001D8D0, symSize: 0x44 }
  - { offsetInCU: 0xC9E1, offset: 0x7E9C0, size: 0x8, addend: 0x0, symName: __ZNSt3__14pairINS_10shared_ptrI12StreamSourceEEN6Stream16StreamSourceTypeEED2Ev, symObjAddr: 0x1850, symBinAddr: 0x10001D914, symSize: 0x2C }
  - { offsetInCU: 0xCA0D, offset: 0x7E9EC, size: 0x8, addend: 0x0, symName: __ZNSt3__110lock_guardINS_5mutexEEC2B8ue170006ERS1_, symObjAddr: 0x187C, symBinAddr: 0x10001D940, symSize: 0x3C }
  - { offsetInCU: 0xCA45, offset: 0x7EA24, size: 0x8, addend: 0x0, symName: __ZNSt3__110lock_guardINS_5mutexEED2B8ue170006Ev, symObjAddr: 0x18B8, symBinAddr: 0x10001D97C, symSize: 0x30 }
  - { offsetInCU: 0xCA6F, offset: 0x7EA4E, size: 0x8, addend: 0x0, symName: __ZNSt3__110shared_ptrI12StreamSourceEC2B8ue170006ERKS2_, symObjAddr: 0x20FC, symBinAddr: 0x10001D9AC, symSize: 0x70 }
  - { offsetInCU: 0xCAA8, offset: 0x7EA87, size: 0x8, addend: 0x0, symName: __ZNSt3__18functionIFvN6Stream16StreamSourceTypeEyNS_6vectorISt4byteNS_9allocatorIS4_EEEEEED2Ev, symObjAddr: 0x21E8, symBinAddr: 0x10001DA1C, symSize: 0x2C }
  - { offsetInCU: 0xCAD4, offset: 0x7EAB3, size: 0x8, addend: 0x0, symName: __ZNSt3__110__function12__value_funcIFvN6Stream16StreamSourceTypeEyNS_6vectorISt4byteNS_9allocatorIS5_EEEEEED1B8ue170006Ev, symObjAddr: 0x2214, symBinAddr: 0x10001DA48, symSize: 0x2C }
  - { offsetInCU: 0xCAFE, offset: 0x7EADD, size: 0x8, addend: 0x0, symName: __ZNSt3__110__function12__value_funcIFvN6Stream16StreamSourceTypeEyNS_6vectorISt4byteNS_9allocatorIS5_EEEEEED2B8ue170006Ev, symObjAddr: 0x2240, symBinAddr: 0x10001DA74, symSize: 0x90 }
  - { offsetInCU: 0xCB28, offset: 0x7EB07, size: 0x8, addend: 0x0, symName: __ZNSt3__110shared_ptrI12StreamSourceED2B8ue170006Ev, symObjAddr: 0x22D0, symBinAddr: 0x10001DB04, symSize: 0x54 }
  - { offsetInCU: 0xCB52, offset: 0x7EB31, size: 0x8, addend: 0x0, symName: __ZN3rtc21synchronized_callbackIJN6Stream16StreamSourceTypeEyNSt3__16vectorISt4byteNS3_9allocatorIS5_EEEEEED2Ev, symObjAddr: 0x240C, symBinAddr: 0x10001DB58, symSize: 0xB0 }
  - { offsetInCU: 0xCB7C, offset: 0x7EB5B, size: 0x8, addend: 0x0, symName: __ZNSt3__18functionIFvN6Stream16StreamSourceTypeEyNS_6vectorISt4byteNS_9allocatorIS4_EEEEEEC1B8ue170006EDn, symObjAddr: 0x24BC, symBinAddr: 0x10001DC08, symSize: 0x34 }
  - { offsetInCU: 0xCBB2, offset: 0x7EB91, size: 0x8, addend: 0x0, symName: __ZNSt3__18functionIFvN6Stream16StreamSourceTypeEyNS_6vectorISt4byteNS_9allocatorIS4_EEEEEEC2B8ue170006EDn, symObjAddr: 0x24F0, symBinAddr: 0x10001DC3C, symSize: 0x30 }
  - { offsetInCU: 0xCBE8, offset: 0x7EBC7, size: 0x8, addend: 0x0, symName: __ZNSt3__18weak_ptrI6StreamED1Ev, symObjAddr: 0x2520, symBinAddr: 0x10001DC6C, symSize: 0x2C }
  - { offsetInCU: 0xCC14, offset: 0x7EBF3, size: 0x8, addend: 0x0, symName: __ZNSt3__18weak_ptrI6StreamED2Ev, symObjAddr: 0x254C, symBinAddr: 0x10001DC98, symSize: 0x54 }
  - { offsetInCU: 0xCC40, offset: 0x7EC1F, size: 0x8, addend: 0x0, symName: __ZNSt3__110shared_ptrI12StreamSourceE4swapB8ue170006ERS2_, symObjAddr: 0x25A0, symBinAddr: 0x10001DCEC, symSize: 0x44 }
  - { offsetInCU: 0xCC8E, offset: 0x7EC6D, size: 0x8, addend: 0x0, symName: __ZNSt3__110lock_guardINS_15recursive_mutexEEC1B8ue170006ERS1_, symObjAddr: 0x265C, symBinAddr: 0x10001DD6C, symSize: 0x34 }
  - { offsetInCU: 0xCCC6, offset: 0x7ECA5, size: 0x8, addend: 0x0, symName: __ZNSt3__110lock_guardINS_15recursive_mutexEED1B8ue170006Ev, symObjAddr: 0x2690, symBinAddr: 0x10001DDA0, symSize: 0x2C }
  - { offsetInCU: 0xCCF0, offset: 0x7ECCF, size: 0x8, addend: 0x0, symName: __ZNSt3__110lock_guardINS_15recursive_mutexEEC2B8ue170006ERS1_, symObjAddr: 0x26BC, symBinAddr: 0x10001DDCC, symSize: 0x3C }
  - { offsetInCU: 0xCD28, offset: 0x7ED07, size: 0x8, addend: 0x0, symName: __ZNSt3__110lock_guardINS_15recursive_mutexEED2B8ue170006Ev, symObjAddr: 0x26F8, symBinAddr: 0x10001DE08, symSize: 0x30 }
  - { offsetInCU: 0xCD6B, offset: 0x7ED4A, size: 0x8, addend: 0x0, symName: '__ZNSt3__18functionIFvvEEC2IZN6Stream10sendSampleEvE3$_0vEET_', symObjAddr: 0x36A0, symBinAddr: 0x10001DE38, symSize: 0x38 }
  - { offsetInCU: 0xCDB0, offset: 0x7ED8F, size: 0x8, addend: 0x0, symName: '__ZNSt3__110__function12__value_funcIFvvEEC1B8ue170006IZN6Stream10sendSampleEvE3$_0vEEOT_', symObjAddr: 0x36D8, symBinAddr: 0x10001DE70, symSize: 0x50 }
  - { offsetInCU: 0xCDF3, offset: 0x7EDD2, size: 0x8, addend: 0x0, symName: '__ZNSt3__19allocatorIZN6Stream10sendSampleEvE3$_0EC1B8ue170006Ev', symObjAddr: 0x3728, symBinAddr: 0x10001DEC0, symSize: 0x2C }
  - { offsetInCU: 0xCE1D, offset: 0x7EDFC, size: 0x8, addend: 0x0, symName: '__ZNSt3__110__function12__value_funcIFvvEEC1B8ue170006IZN6Stream10sendSampleEvE3$_0NS_9allocatorIS6_EEEEOT_RKT0_', symObjAddr: 0x3754, symBinAddr: 0x10001DEEC, symSize: 0x3C }
  - { offsetInCU: 0xCE77, offset: 0x7EE56, size: 0x8, addend: 0x0, symName: '__ZNSt3__19allocatorIZN6Stream10sendSampleEvE3$_0EC2B8ue170006Ev', symObjAddr: 0x3790, symBinAddr: 0x10001DF28, symSize: 0x2C }
  - { offsetInCU: 0xCEA1, offset: 0x7EE80, size: 0x8, addend: 0x0, symName: '__ZNSt3__116__non_trivial_ifILb1ENS_9allocatorIZN6Stream10sendSampleEvE3$_0EEEC2B8ue170006Ev', symObjAddr: 0x37BC, symBinAddr: 0x10001DF54, symSize: 0x14 }
  - { offsetInCU: 0xCECB, offset: 0x7EEAA, size: 0x8, addend: 0x0, symName: '__ZNSt3__110__function12__value_funcIFvvEEC2B8ue170006IZN6Stream10sendSampleEvE3$_0NS_9allocatorIS6_EEEEOT_RKT0_', symObjAddr: 0x37D0, symBinAddr: 0x10001DF68, symSize: 0x94 }
  - { offsetInCU: 0xCF71, offset: 0x7EF50, size: 0x8, addend: 0x0, symName: '__ZNSt3__19allocatorINS_10__function6__funcIZN6Stream10sendSampleEvE3$_0NS0_IS4_EEFvvEEEEC1B8ue170006IS4_EERKNS0_IT_EE', symObjAddr: 0x387C, symBinAddr: 0x10001E014, symSize: 0x34 }
  - { offsetInCU: 0xCFB4, offset: 0x7EF93, size: 0x8, addend: 0x0, symName: '__ZNSt3__19allocatorIZN6Stream10sendSampleEvE3$_0EC1B8ue170006INS_10__function6__funcIS2_S3_FvvEEEEERKNS0_IT_EE', symObjAddr: 0x38B0, symBinAddr: 0x10001E048, symSize: 0x34 }
  - { offsetInCU: 0xCFF2, offset: 0x7EFD1, size: 0x8, addend: 0x0, symName: '__ZNSt3__110__function6__funcIZN6Stream10sendSampleEvE3$_0NS_9allocatorIS3_EEFvvEEC1B8ue170006EOS3_OS5_', symObjAddr: 0x38E4, symBinAddr: 0x10001E07C, symSize: 0x3C }
  - { offsetInCU: 0xD03A, offset: 0x7F019, size: 0x8, addend: 0x0, symName: '__ZNSt3__19allocatorINS_10__function6__funcIZN6Stream10sendSampleEvE3$_0NS0_IS4_EEFvvEEEEC2B8ue170006IS4_EERKNS0_IT_EE', symObjAddr: 0x3920, symBinAddr: 0x10001E0B8, symSize: 0x30 }
  - { offsetInCU: 0xD078, offset: 0x7F057, size: 0x8, addend: 0x0, symName: '__ZNSt3__116__non_trivial_ifILb1ENS_9allocatorINS_10__function6__funcIZN6Stream10sendSampleEvE3$_0NS1_IS5_EEFvvEEEEEEC2B8ue170006Ev', symObjAddr: 0x3950, symBinAddr: 0x10001E0E8, symSize: 0x14 }
  - { offsetInCU: 0xD0A2, offset: 0x7F081, size: 0x8, addend: 0x0, symName: '__ZNSt3__19allocatorIZN6Stream10sendSampleEvE3$_0EC2B8ue170006INS_10__function6__funcIS2_S3_FvvEEEEERKNS0_IT_EE', symObjAddr: 0x3964, symBinAddr: 0x10001E0FC, symSize: 0x30 }
  - { offsetInCU: 0xD0E0, offset: 0x7F0BF, size: 0x8, addend: 0x0, symName: '__ZNSt3__110__function6__funcIZN6Stream10sendSampleEvE3$_0NS_9allocatorIS3_EEFvvEEC2B8ue170006EOS3_OS5_', symObjAddr: 0x3994, symBinAddr: 0x10001E12C, symSize: 0x88 }
  - { offsetInCU: 0xD128, offset: 0x7F107, size: 0x8, addend: 0x0, symName: __ZNSt3__110__function6__baseIFvvEEC2B8ue170006Ev, symObjAddr: 0x3A1C, symBinAddr: 0x10001E1B4, symSize: 0x24 }
  - { offsetInCU: 0xD152, offset: 0x7F131, size: 0x8, addend: 0x0, symName: '__ZNSt3__110__function12__alloc_funcIZN6Stream10sendSampleEvE3$_0NS_9allocatorIS3_EEFvvEEC1B8ue170006EOS3_OS5_', symObjAddr: 0x3A40, symBinAddr: 0x10001E1D8, symSize: 0x3C }
  - { offsetInCU: 0xD198, offset: 0x7F177, size: 0x8, addend: 0x0, symName: __ZNSt3__110__function6__baseIFvvEED2Ev, symObjAddr: 0x3A7C, symBinAddr: 0x10001E214, symSize: 0x14 }
  - { offsetInCU: 0xD1C2, offset: 0x7F1A1, size: 0x8, addend: 0x0, symName: '__ZNSt3__110__function6__funcIZN6Stream10sendSampleEvE3$_0NS_9allocatorIS3_EEFvvEED1Ev', symObjAddr: 0x3A90, symBinAddr: 0x10001E228, symSize: 0x2C }
  - { offsetInCU: 0xD1EF, offset: 0x7F1CE, size: 0x8, addend: 0x0, symName: '__ZNSt3__110__function6__funcIZN6Stream10sendSampleEvE3$_0NS_9allocatorIS3_EEFvvEED0Ev', symObjAddr: 0x3ABC, symBinAddr: 0x10001E254, symSize: 0x30 }
  - { offsetInCU: 0xD21C, offset: 0x7F1FB, size: 0x8, addend: 0x0, symName: '__ZNKSt3__110__function6__funcIZN6Stream10sendSampleEvE3$_0NS_9allocatorIS3_EEFvvEE7__cloneEv', symObjAddr: 0x3AEC, symBinAddr: 0x10001E284, symSize: 0xFC }
  - { offsetInCU: 0xD26E, offset: 0x7F24D, size: 0x8, addend: 0x0, symName: '__ZNKSt3__110__function6__funcIZN6Stream10sendSampleEvE3$_0NS_9allocatorIS3_EEFvvEE7__cloneEPNS0_6__baseIS6_EE', symObjAddr: 0x3BE8, symBinAddr: 0x10001E380, symSize: 0x58 }
  - { offsetInCU: 0xD2A5, offset: 0x7F284, size: 0x8, addend: 0x0, symName: '__ZNSt3__110__function6__funcIZN6Stream10sendSampleEvE3$_0NS_9allocatorIS3_EEFvvEE7destroyEv', symObjAddr: 0x3C40, symBinAddr: 0x10001E3D8, symSize: 0x28 }
  - { offsetInCU: 0xD2CD, offset: 0x7F2AC, size: 0x8, addend: 0x0, symName: '__ZNSt3__110__function6__funcIZN6Stream10sendSampleEvE3$_0NS_9allocatorIS3_EEFvvEE18destroy_deallocateEv', symObjAddr: 0x3C68, symBinAddr: 0x10001E400, symSize: 0x58 }
  - { offsetInCU: 0xD310, offset: 0x7F2EF, size: 0x8, addend: 0x0, symName: '__ZNSt3__110__function6__funcIZN6Stream10sendSampleEvE3$_0NS_9allocatorIS3_EEFvvEEclEv', symObjAddr: 0x3CC0, symBinAddr: 0x10001E458, symSize: 0x28 }
  - { offsetInCU: 0xD338, offset: 0x7F317, size: 0x8, addend: 0x0, symName: '__ZNKSt3__110__function6__funcIZN6Stream10sendSampleEvE3$_0NS_9allocatorIS3_EEFvvEE6targetERKSt9type_info', symObjAddr: 0x3CE8, symBinAddr: 0x10001E480, symSize: 0x60 }
  - { offsetInCU: 0xD36F, offset: 0x7F34E, size: 0x8, addend: 0x0, symName: '__ZNKSt3__110__function6__funcIZN6Stream10sendSampleEvE3$_0NS_9allocatorIS3_EEFvvEE11target_typeEv', symObjAddr: 0x3D48, symBinAddr: 0x10001E4E0, symSize: 0x18 }
  - { offsetInCU: 0xD397, offset: 0x7F376, size: 0x8, addend: 0x0, symName: __ZNSt3__110__function6__baseIFvvEED1Ev, symObjAddr: 0x3D60, symBinAddr: 0x10001E4F8, symSize: 0x14 }
  - { offsetInCU: 0xD3C1, offset: 0x7F3A0, size: 0x8, addend: 0x0, symName: __ZNSt3__110__function6__baseIFvvEED0Ev, symObjAddr: 0x3D74, symBinAddr: 0x10001E50C, symSize: 0xC }
  - { offsetInCU: 0xD3EB, offset: 0x7F3CA, size: 0x8, addend: 0x0, symName: '__ZNSt3__110__function12__alloc_funcIZN6Stream10sendSampleEvE3$_0NS_9allocatorIS3_EEFvvEEC2B8ue170006EOS3_OS5_', symObjAddr: 0x3D80, symBinAddr: 0x10001E518, symSize: 0x5C }
  - { offsetInCU: 0xD431, offset: 0x7F410, size: 0x8, addend: 0x0, symName: '__ZNSt3__117__compressed_pairIZN6Stream10sendSampleEvE3$_0NS_9allocatorIS2_EEEC1B8ue170006IJOS2_EJOS4_EEENS_21piecewise_construct_tENS_5tupleIJDpT_EEENSA_IJDpT0_EEE', symObjAddr: 0x3E34, symBinAddr: 0x10001E5CC, symSize: 0x3C }
  - { offsetInCU: 0xD49B, offset: 0x7F47A, size: 0x8, addend: 0x0, symName: '__ZNSt3__15tupleIJOZN6Stream10sendSampleEvE3$_0EEC1B8ue170006IJS2_ELi0EEEDpOT_', symObjAddr: 0x3E70, symBinAddr: 0x10001E608, symSize: 0x34 }
  - { offsetInCU: 0xD4E5, offset: 0x7F4C4, size: 0x8, addend: 0x0, symName: '__ZNSt3__15tupleIJOZN6Stream10sendSampleEvE3$_0EEC2B8ue170006IJS2_ELi0EEEDpOT_', symObjAddr: 0x3EA4, symBinAddr: 0x10001E63C, symSize: 0x34 }
  - { offsetInCU: 0xD52F, offset: 0x7F50E, size: 0x8, addend: 0x0, symName: '__ZNSt3__112__tuple_implINS_15__tuple_indicesIJLm0EEEEJOZN6Stream10sendSampleEvE3$_0EEC1B8ue170006IJLm0EEJS5_EJEJEJS4_EEENS1_IJXspT_EEEENS_13__tuple_typesIJDpT0_EEENS1_IJXspT1_EEEENS9_IJDpT2_EEEDpOT3_', symObjAddr: 0x3ED8, symBinAddr: 0x10001E670, symSize: 0x34 }
  - { offsetInCU: 0xD5C4, offset: 0x7F5A3, size: 0x8, addend: 0x0, symName: '__ZNSt3__112__tuple_implINS_15__tuple_indicesIJLm0EEEEJOZN6Stream10sendSampleEvE3$_0EEC2B8ue170006IJLm0EEJS5_EJEJEJS4_EEENS1_IJXspT_EEEENS_13__tuple_typesIJDpT0_EEENS1_IJXspT1_EEEENS9_IJDpT2_EEEDpOT3_', symObjAddr: 0x3F0C, symBinAddr: 0x10001E6A4, symSize: 0x34 }
  - { offsetInCU: 0xD659, offset: 0x7F638, size: 0x8, addend: 0x0, symName: '__ZNSt3__112__tuple_leafILm0EOZN6Stream10sendSampleEvE3$_0Lb0EEC2B8ue170006IS2_vEEOT_', symObjAddr: 0x3F40, symBinAddr: 0x10001E6D8, symSize: 0x20 }
  - { offsetInCU: 0xD69C, offset: 0x7F67B, size: 0x8, addend: 0x0, symName: '__ZNSt3__15tupleIJONS_9allocatorIZN6Stream10sendSampleEvE3$_0EEEEC1B8ue170006IJS4_ELi0EEEDpOT_', symObjAddr: 0x3F60, symBinAddr: 0x10001E6F8, symSize: 0x34 }
  - { offsetInCU: 0xD6E6, offset: 0x7F6C5, size: 0x8, addend: 0x0, symName: '__ZNSt3__15tupleIJONS_9allocatorIZN6Stream10sendSampleEvE3$_0EEEEC2B8ue170006IJS4_ELi0EEEDpOT_', symObjAddr: 0x3F94, symBinAddr: 0x10001E72C, symSize: 0x34 }
  - { offsetInCU: 0xD730, offset: 0x7F70F, size: 0x8, addend: 0x0, symName: '__ZNSt3__112__tuple_implINS_15__tuple_indicesIJLm0EEEEJONS_9allocatorIZN6Stream10sendSampleEvE3$_0EEEEC1B8ue170006IJLm0EEJS7_EJEJEJS6_EEENS1_IJXspT_EEEENS_13__tuple_typesIJDpT0_EEENS1_IJXspT1_EEEENSB_IJDpT2_EEEDpOT3_', symObjAddr: 0x3FC8, symBinAddr: 0x10001E760, symSize: 0x34 }
  - { offsetInCU: 0xD7C5, offset: 0x7F7A4, size: 0x8, addend: 0x0, symName: '__ZNSt3__112__tuple_implINS_15__tuple_indicesIJLm0EEEEJONS_9allocatorIZN6Stream10sendSampleEvE3$_0EEEEC2B8ue170006IJLm0EEJS7_EJEJEJS6_EEENS1_IJXspT_EEEENS_13__tuple_typesIJDpT0_EEENS1_IJXspT1_EEEENSB_IJDpT2_EEEDpOT3_', symObjAddr: 0x3FFC, symBinAddr: 0x10001E794, symSize: 0x34 }
  - { offsetInCU: 0xD85A, offset: 0x7F839, size: 0x8, addend: 0x0, symName: '__ZNSt3__112__tuple_leafILm0EONS_9allocatorIZN6Stream10sendSampleEvE3$_0EELb0EEC2B8ue170006IS4_vEEOT_', symObjAddr: 0x4030, symBinAddr: 0x10001E7C8, symSize: 0x20 }
  - { offsetInCU: 0xD89D, offset: 0x7F87C, size: 0x8, addend: 0x0, symName: '__ZNSt3__117__compressed_pairIZN6Stream10sendSampleEvE3$_0NS_9allocatorIS2_EEEC2B8ue170006IJOS2_EJOS4_EEENS_21piecewise_construct_tENS_5tupleIJDpT_EEENSA_IJDpT0_EEE', symObjAddr: 0x4050, symBinAddr: 0x10001E7E8, symSize: 0x54 }
  - { offsetInCU: 0xD907, offset: 0x7F8E6, size: 0x8, addend: 0x0, symName: '__ZNSt3__122__compressed_pair_elemIZN6Stream10sendSampleEvE3$_0Li0ELb0EEC2B8ue170006IJOS2_EJLm0EEEENS_21piecewise_construct_tENS_5tupleIJDpT_EEENS_15__tuple_indicesIJXspT0_EEEE', symObjAddr: 0x40A4, symBinAddr: 0x10001E83C, symSize: 0x44 }
  - { offsetInCU: 0xD96C, offset: 0x7F94B, size: 0x8, addend: 0x0, symName: '__ZNSt3__122__compressed_pair_elemINS_9allocatorIZN6Stream10sendSampleEvE3$_0EELi1ELb1EEC2B8ue170006IJOS4_EJLm0EEEENS_21piecewise_construct_tENS_5tupleIJDpT_EEENS_15__tuple_indicesIJXspT0_EEEE', symObjAddr: 0x40E8, symBinAddr: 0x10001E880, symSize: 0x38 }
  - { offsetInCU: 0xD9D1, offset: 0x7F9B0, size: 0x8, addend: 0x0, symName: '__ZNSt3__112__tuple_leafILm0EOZN6Stream10sendSampleEvE3$_0Lb0EE3getB8ue170006Ev', symObjAddr: 0x4144, symBinAddr: 0x10001E8DC, symSize: 0x18 }
  - { offsetInCU: 0xD9F7, offset: 0x7F9D6, size: 0x8, addend: 0x0, symName: '__ZNSt3__112__tuple_leafILm0EONS_9allocatorIZN6Stream10sendSampleEvE3$_0EELb0EE3getB8ue170006Ev', symObjAddr: 0x4180, symBinAddr: 0x10001E918, symSize: 0x18 }
  - { offsetInCU: 0xDA1D, offset: 0x7F9FC, size: 0x8, addend: 0x0, symName: '__ZNSt3__110__function6__funcIZN6Stream10sendSampleEvE3$_0NS_9allocatorIS3_EEFvvEED2Ev', symObjAddr: 0x4198, symBinAddr: 0x10001E930, symSize: 0x2C }
  - { offsetInCU: 0xDA4A, offset: 0x7FA29, size: 0x8, addend: 0x0, symName: '__ZNKSt3__110__function12__alloc_funcIZN6Stream10sendSampleEvE3$_0NS_9allocatorIS3_EEFvvEE15__get_allocatorB8ue170006Ev', symObjAddr: 0x41C4, symBinAddr: 0x10001E95C, symSize: 0x24 }
  - { offsetInCU: 0xDA70, offset: 0x7FA4F, size: 0x8, addend: 0x0, symName: '__ZNSt3__19allocatorINS_10__function6__funcIZN6Stream10sendSampleEvE3$_0NS0_IS4_EEFvvEEEE8allocateB8ue170006Em', symObjAddr: 0x41E8, symBinAddr: 0x10001E980, symSize: 0x58 }
  - { offsetInCU: 0xDAB3, offset: 0x7FA92, size: 0x8, addend: 0x0, symName: '__ZNSt3__122__allocator_destructorINS_9allocatorINS_10__function6__funcIZN6Stream10sendSampleEvE3$_0NS1_IS5_EEFvvEEEEEEC1B8ue170006ERS9_m', symObjAddr: 0x4240, symBinAddr: 0x10001E9D8, symSize: 0x3C }
  - { offsetInCU: 0xDB87, offset: 0x7FB66, size: 0x8, addend: 0x0, symName: '__ZNSt3__110unique_ptrINS_10__function6__funcIZN6Stream10sendSampleEvE3$_0NS_9allocatorIS4_EEFvvEEENS_22__allocator_destructorINS5_IS8_EEEEEC1B8ue170006ILb1EvEEPS8_NS_16__dependent_typeINS_27__unique_ptr_deleter_sfinaeISB_EEXT_EE20__good_rval_ref_typeE', symObjAddr: 0x427C, symBinAddr: 0x10001EA14, symSize: 0x3C }
  - { offsetInCU: 0xDBD8, offset: 0x7FBB7, size: 0x8, addend: 0x0, symName: '__ZNKSt3__110unique_ptrINS_10__function6__funcIZN6Stream10sendSampleEvE3$_0NS_9allocatorIS4_EEFvvEEENS_22__allocator_destructorINS5_IS8_EEEEE3getB8ue170006Ev', symObjAddr: 0x42B8, symBinAddr: 0x10001EA50, symSize: 0x28 }
  - { offsetInCU: 0xDBFE, offset: 0x7FBDD, size: 0x8, addend: 0x0, symName: '__ZNKSt3__110__function12__alloc_funcIZN6Stream10sendSampleEvE3$_0NS_9allocatorIS3_EEFvvEE8__targetB8ue170006Ev', symObjAddr: 0x42E0, symBinAddr: 0x10001EA78, symSize: 0x24 }
  - { offsetInCU: 0xDC24, offset: 0x7FC03, size: 0x8, addend: 0x0, symName: '__ZNSt3__110__function6__funcIZN6Stream10sendSampleEvE3$_0NS_9allocatorIS3_EEFvvEEC1B8ue170006ERKS3_OS5_', symObjAddr: 0x4304, symBinAddr: 0x10001EA9C, symSize: 0x3C }
  - { offsetInCU: 0xDC6C, offset: 0x7FC4B, size: 0x8, addend: 0x0, symName: '__ZNSt3__110unique_ptrINS_10__function6__funcIZN6Stream10sendSampleEvE3$_0NS_9allocatorIS4_EEFvvEEENS_22__allocator_destructorINS5_IS8_EEEEE7releaseB8ue170006Ev', symObjAddr: 0x4340, symBinAddr: 0x10001EAD8, symSize: 0x44 }
  - { offsetInCU: 0xDCA1, offset: 0x7FC80, size: 0x8, addend: 0x0, symName: '__ZNSt3__110unique_ptrINS_10__function6__funcIZN6Stream10sendSampleEvE3$_0NS_9allocatorIS4_EEFvvEEENS_22__allocator_destructorINS5_IS8_EEEEED1B8ue170006Ev', symObjAddr: 0x4384, symBinAddr: 0x10001EB1C, symSize: 0x2C }
  - { offsetInCU: 0xDCCB, offset: 0x7FCAA, size: 0x8, addend: 0x0, symName: '__ZNKSt3__117__compressed_pairIZN6Stream10sendSampleEvE3$_0NS_9allocatorIS2_EEE6secondB8ue170006Ev', symObjAddr: 0x43B0, symBinAddr: 0x10001EB48, symSize: 0x24 }
  - { offsetInCU: 0xDCF1, offset: 0x7FCD0, size: 0x8, addend: 0x0, symName: '__ZNKSt3__122__compressed_pair_elemINS_9allocatorIZN6Stream10sendSampleEvE3$_0EELi1ELb1EE5__getB8ue170006Ev', symObjAddr: 0x43D4, symBinAddr: 0x10001EB6C, symSize: 0x14 }
  - { offsetInCU: 0xDD21, offset: 0x7FD00, size: 0x8, addend: 0x0, symName: '__ZNSt3__116allocator_traitsINS_9allocatorINS_10__function6__funcIZN6Stream10sendSampleEvE3$_0NS1_IS5_EEFvvEEEEEE8max_sizeB8ue170006IS9_vEEmRKS9_', symObjAddr: 0x43E8, symBinAddr: 0x10001EB80, symSize: 0x24 }
  - { offsetInCU: 0xDD4F, offset: 0x7FD2E, size: 0x8, addend: 0x0, symName: '__ZNKSt3__19allocatorINS_10__function6__funcIZN6Stream10sendSampleEvE3$_0NS0_IS4_EEFvvEEEE8max_sizeB8ue170006Ev', symObjAddr: 0x440C, symBinAddr: 0x10001EBA4, symSize: 0x14 }
  - { offsetInCU: 0xDD75, offset: 0x7FD54, size: 0x8, addend: 0x0, symName: '__ZNSt3__122__allocator_destructorINS_9allocatorINS_10__function6__funcIZN6Stream10sendSampleEvE3$_0NS1_IS5_EEFvvEEEEEEC2B8ue170006ERS9_m', symObjAddr: 0x4420, symBinAddr: 0x10001EBB8, symSize: 0x2C }
  - { offsetInCU: 0xDDBB, offset: 0x7FD9A, size: 0x8, addend: 0x0, symName: '__ZNSt3__110unique_ptrINS_10__function6__funcIZN6Stream10sendSampleEvE3$_0NS_9allocatorIS4_EEFvvEEENS_22__allocator_destructorINS5_IS8_EEEEEC2B8ue170006ILb1EvEEPS8_NS_16__dependent_typeINS_27__unique_ptr_deleter_sfinaeISB_EEXT_EE20__good_rval_ref_typeE', symObjAddr: 0x444C, symBinAddr: 0x10001EBE4, symSize: 0x48 }
  - { offsetInCU: 0xDE0C, offset: 0x7FDEB, size: 0x8, addend: 0x0, symName: '__ZNSt3__117__compressed_pairIPNS_10__function6__funcIZN6Stream10sendSampleEvE3$_0NS_9allocatorIS4_EEFvvEEENS_22__allocator_destructorINS5_IS8_EEEEEC1B8ue170006IRS9_SC_EEOT_OT0_', symObjAddr: 0x4494, symBinAddr: 0x10001EC2C, symSize: 0x3C }
  - { offsetInCU: 0xDE64, offset: 0x7FE43, size: 0x8, addend: 0x0, symName: '__ZNSt3__117__compressed_pairIPNS_10__function6__funcIZN6Stream10sendSampleEvE3$_0NS_9allocatorIS4_EEFvvEEENS_22__allocator_destructorINS5_IS8_EEEEEC2B8ue170006IRS9_SC_EEOT_OT0_', symObjAddr: 0x44D0, symBinAddr: 0x10001EC68, symSize: 0x48 }
  - { offsetInCU: 0xDEBC, offset: 0x7FE9B, size: 0x8, addend: 0x0, symName: '__ZNSt3__122__compressed_pair_elemIPNS_10__function6__funcIZN6Stream10sendSampleEvE3$_0NS_9allocatorIS4_EEFvvEEELi0ELb0EEC2B8ue170006IRS9_vEEOT_', symObjAddr: 0x4518, symBinAddr: 0x10001ECB0, symSize: 0x24 }
  - { offsetInCU: 0xDEFE, offset: 0x7FEDD, size: 0x8, addend: 0x0, symName: '__ZNSt3__122__compressed_pair_elemINS_22__allocator_destructorINS_9allocatorINS_10__function6__funcIZN6Stream10sendSampleEvE3$_0NS2_IS6_EEFvvEEEEEEELi1ELb0EEC2B8ue170006ISB_vEEOT_', symObjAddr: 0x453C, symBinAddr: 0x10001ECD4, symSize: 0x24 }
  - { offsetInCU: 0xDF40, offset: 0x7FF1F, size: 0x8, addend: 0x0, symName: '__ZNKSt3__117__compressed_pairIPNS_10__function6__funcIZN6Stream10sendSampleEvE3$_0NS_9allocatorIS4_EEFvvEEENS_22__allocator_destructorINS5_IS8_EEEEE5firstB8ue170006Ev', symObjAddr: 0x4560, symBinAddr: 0x10001ECF8, symSize: 0x24 }
  - { offsetInCU: 0xDF66, offset: 0x7FF45, size: 0x8, addend: 0x0, symName: '__ZNKSt3__122__compressed_pair_elemIPNS_10__function6__funcIZN6Stream10sendSampleEvE3$_0NS_9allocatorIS4_EEFvvEEELi0ELb0EE5__getB8ue170006Ev', symObjAddr: 0x4584, symBinAddr: 0x10001ED1C, symSize: 0x14 }
  - { offsetInCU: 0xDF8C, offset: 0x7FF6B, size: 0x8, addend: 0x0, symName: '__ZNKSt3__117__compressed_pairIZN6Stream10sendSampleEvE3$_0NS_9allocatorIS2_EEE5firstB8ue170006Ev', symObjAddr: 0x4598, symBinAddr: 0x10001ED30, symSize: 0x24 }
  - { offsetInCU: 0xDFB2, offset: 0x7FF91, size: 0x8, addend: 0x0, symName: '__ZNKSt3__122__compressed_pair_elemIZN6Stream10sendSampleEvE3$_0Li0ELb0EE5__getB8ue170006Ev', symObjAddr: 0x45BC, symBinAddr: 0x10001ED54, symSize: 0x14 }
  - { offsetInCU: 0xDFD8, offset: 0x7FFB7, size: 0x8, addend: 0x0, symName: '__ZNSt3__110__function6__funcIZN6Stream10sendSampleEvE3$_0NS_9allocatorIS3_EEFvvEEC2B8ue170006ERKS3_OS5_', symObjAddr: 0x45D0, symBinAddr: 0x10001ED68, symSize: 0x88 }
  - { offsetInCU: 0xE020, offset: 0x7FFFF, size: 0x8, addend: 0x0, symName: '__ZNSt3__110__function12__alloc_funcIZN6Stream10sendSampleEvE3$_0NS_9allocatorIS3_EEFvvEEC1B8ue170006ERKS3_OS5_', symObjAddr: 0x4658, symBinAddr: 0x10001EDF0, symSize: 0x3C }
  - { offsetInCU: 0xE066, offset: 0x80045, size: 0x8, addend: 0x0, symName: '__ZNSt3__110__function12__alloc_funcIZN6Stream10sendSampleEvE3$_0NS_9allocatorIS3_EEFvvEEC2B8ue170006ERKS3_OS5_', symObjAddr: 0x4694, symBinAddr: 0x10001EE2C, symSize: 0x5C }
  - { offsetInCU: 0xE0AC, offset: 0x8008B, size: 0x8, addend: 0x0, symName: '__ZNSt3__117__compressed_pairIZN6Stream10sendSampleEvE3$_0NS_9allocatorIS2_EEEC1B8ue170006IJRKS2_EJOS4_EEENS_21piecewise_construct_tENS_5tupleIJDpT_EEENSB_IJDpT0_EEE', symObjAddr: 0x471C, symBinAddr: 0x10001EEB4, symSize: 0x3C }
  - { offsetInCU: 0xE116, offset: 0x800F5, size: 0x8, addend: 0x0, symName: '__ZNSt3__15tupleIJRKZN6Stream10sendSampleEvE3$_0EEC1B8ue170006INS_4_AndELi0EEES4_', symObjAddr: 0x4758, symBinAddr: 0x10001EEF0, symSize: 0x34 }
  - { offsetInCU: 0xE15E, offset: 0x8013D, size: 0x8, addend: 0x0, symName: '__ZNSt3__15tupleIJRKZN6Stream10sendSampleEvE3$_0EEC2B8ue170006INS_4_AndELi0EEES4_', symObjAddr: 0x478C, symBinAddr: 0x10001EF24, symSize: 0x34 }
  - { offsetInCU: 0xE1A6, offset: 0x80185, size: 0x8, addend: 0x0, symName: '__ZNSt3__112__tuple_implINS_15__tuple_indicesIJLm0EEEEJRKZN6Stream10sendSampleEvE3$_0EEC1B8ue170006IJLm0EEJS6_EJEJEJS6_EEENS1_IJXspT_EEEENS_13__tuple_typesIJDpT0_EEENS1_IJXspT1_EEEENSA_IJDpT2_EEEDpOT3_', symObjAddr: 0x47C0, symBinAddr: 0x10001EF58, symSize: 0x34 }
  - { offsetInCU: 0xE23B, offset: 0x8021A, size: 0x8, addend: 0x0, symName: '__ZNSt3__112__tuple_implINS_15__tuple_indicesIJLm0EEEEJRKZN6Stream10sendSampleEvE3$_0EEC2B8ue170006IJLm0EEJS6_EJEJEJS6_EEENS1_IJXspT_EEEENS_13__tuple_typesIJDpT0_EEENS1_IJXspT1_EEEENSA_IJDpT2_EEEDpOT3_', symObjAddr: 0x47F4, symBinAddr: 0x10001EF8C, symSize: 0x34 }
  - { offsetInCU: 0xE2D0, offset: 0x802AF, size: 0x8, addend: 0x0, symName: '__ZNSt3__112__tuple_leafILm0ERKZN6Stream10sendSampleEvE3$_0Lb0EEC2B8ue170006IS4_vEEOT_', symObjAddr: 0x4828, symBinAddr: 0x10001EFC0, symSize: 0x20 }
  - { offsetInCU: 0xE313, offset: 0x802F2, size: 0x8, addend: 0x0, symName: '__ZNSt3__117__compressed_pairIZN6Stream10sendSampleEvE3$_0NS_9allocatorIS2_EEEC2B8ue170006IJRKS2_EJOS4_EEENS_21piecewise_construct_tENS_5tupleIJDpT_EEENSB_IJDpT0_EEE', symObjAddr: 0x4848, symBinAddr: 0x10001EFE0, symSize: 0x54 }
  - { offsetInCU: 0xE37D, offset: 0x8035C, size: 0x8, addend: 0x0, symName: '__ZNSt3__122__compressed_pair_elemIZN6Stream10sendSampleEvE3$_0Li0ELb0EEC2B8ue170006IJRKS2_EJLm0EEEENS_21piecewise_construct_tENS_5tupleIJDpT_EEENS_15__tuple_indicesIJXspT0_EEEE', symObjAddr: 0x489C, symBinAddr: 0x10001F034, symSize: 0x44 }
  - { offsetInCU: 0xE3E2, offset: 0x803C1, size: 0x8, addend: 0x0, symName: '__ZNSt3__112__tuple_leafILm0ERKZN6Stream10sendSampleEvE3$_0Lb0EE3getB8ue170006Ev', symObjAddr: 0x4904, symBinAddr: 0x10001F09C, symSize: 0x18 }
  - { offsetInCU: 0xE408, offset: 0x803E7, size: 0x8, addend: 0x0, symName: '__ZNSt3__117__compressed_pairIPNS_10__function6__funcIZN6Stream10sendSampleEvE3$_0NS_9allocatorIS4_EEFvvEEENS_22__allocator_destructorINS5_IS8_EEEEE5firstB8ue170006Ev', symObjAddr: 0x491C, symBinAddr: 0x10001F0B4, symSize: 0x24 }
  - { offsetInCU: 0xE42E, offset: 0x8040D, size: 0x8, addend: 0x0, symName: '__ZNSt3__122__compressed_pair_elemIPNS_10__function6__funcIZN6Stream10sendSampleEvE3$_0NS_9allocatorIS4_EEFvvEEELi0ELb0EE5__getB8ue170006Ev', symObjAddr: 0x4940, symBinAddr: 0x10001F0D8, symSize: 0x14 }
  - { offsetInCU: 0xE454, offset: 0x80433, size: 0x8, addend: 0x0, symName: '__ZNSt3__110unique_ptrINS_10__function6__funcIZN6Stream10sendSampleEvE3$_0NS_9allocatorIS4_EEFvvEEENS_22__allocator_destructorINS5_IS8_EEEEED2B8ue170006Ev', symObjAddr: 0x4954, symBinAddr: 0x10001F0EC, symSize: 0x30 }
  - { offsetInCU: 0xE47E, offset: 0x8045D, size: 0x8, addend: 0x0, symName: '__ZNSt3__110unique_ptrINS_10__function6__funcIZN6Stream10sendSampleEvE3$_0NS_9allocatorIS4_EEFvvEEENS_22__allocator_destructorINS5_IS8_EEEEE5resetB8ue170006EPS8_', symObjAddr: 0x4984, symBinAddr: 0x10001F11C, symSize: 0x78 }
  - { offsetInCU: 0xE4C2, offset: 0x804A1, size: 0x8, addend: 0x0, symName: '__ZNSt3__117__compressed_pairIPNS_10__function6__funcIZN6Stream10sendSampleEvE3$_0NS_9allocatorIS4_EEFvvEEENS_22__allocator_destructorINS5_IS8_EEEEE6secondB8ue170006Ev', symObjAddr: 0x49FC, symBinAddr: 0x10001F194, symSize: 0x28 }
  - { offsetInCU: 0xE4E8, offset: 0x804C7, size: 0x8, addend: 0x0, symName: '__ZNSt3__122__allocator_destructorINS_9allocatorINS_10__function6__funcIZN6Stream10sendSampleEvE3$_0NS1_IS5_EEFvvEEEEEEclB8ue170006EPS8_', symObjAddr: 0x4A24, symBinAddr: 0x10001F1BC, symSize: 0x34 }
  - { offsetInCU: 0xE51C, offset: 0x804FB, size: 0x8, addend: 0x0, symName: '__ZNSt3__122__compressed_pair_elemINS_22__allocator_destructorINS_9allocatorINS_10__function6__funcIZN6Stream10sendSampleEvE3$_0NS2_IS6_EEFvvEEEEEEELi1ELb0EE5__getB8ue170006Ev', symObjAddr: 0x4A58, symBinAddr: 0x10001F1F0, symSize: 0x14 }
  - { offsetInCU: 0xE542, offset: 0x80521, size: 0x8, addend: 0x0, symName: '__ZNSt3__116allocator_traitsINS_9allocatorINS_10__function6__funcIZN6Stream10sendSampleEvE3$_0NS1_IS5_EEFvvEEEEEE10deallocateB8ue170006ERS9_PS8_m', symObjAddr: 0x4A6C, symBinAddr: 0x10001F204, symSize: 0x34 }
  - { offsetInCU: 0xE584, offset: 0x80563, size: 0x8, addend: 0x0, symName: '__ZNSt3__19allocatorINS_10__function6__funcIZN6Stream10sendSampleEvE3$_0NS0_IS4_EEFvvEEEE10deallocateB8ue170006EPS7_m', symObjAddr: 0x4AA0, symBinAddr: 0x10001F238, symSize: 0x40 }
  - { offsetInCU: 0xE5C6, offset: 0x805A5, size: 0x8, addend: 0x0, symName: '__ZNSt3__110__function6__funcIZN6Stream10sendSampleEvE3$_0NS_9allocatorIS3_EEFvvEEC1B8ue170006ERKS3_RKS5_', symObjAddr: 0x4AE0, symBinAddr: 0x10001F278, symSize: 0x3C }
  - { offsetInCU: 0xE60E, offset: 0x805ED, size: 0x8, addend: 0x0, symName: '__ZNSt3__110__function6__funcIZN6Stream10sendSampleEvE3$_0NS_9allocatorIS3_EEFvvEEC2B8ue170006ERKS3_RKS5_', symObjAddr: 0x4B1C, symBinAddr: 0x10001F2B4, symSize: 0x88 }
  - { offsetInCU: 0xE656, offset: 0x80635, size: 0x8, addend: 0x0, symName: '__ZNSt3__110__function12__alloc_funcIZN6Stream10sendSampleEvE3$_0NS_9allocatorIS3_EEFvvEEC1B8ue170006ERKS3_RKS5_', symObjAddr: 0x4BA4, symBinAddr: 0x10001F33C, symSize: 0x3C }
  - { offsetInCU: 0xE69C, offset: 0x8067B, size: 0x8, addend: 0x0, symName: '__ZNSt3__110__function12__alloc_funcIZN6Stream10sendSampleEvE3$_0NS_9allocatorIS3_EEFvvEEC2B8ue170006ERKS3_RKS5_', symObjAddr: 0x4BE0, symBinAddr: 0x10001F378, symSize: 0x5C }
  - { offsetInCU: 0xE6E2, offset: 0x806C1, size: 0x8, addend: 0x0, symName: '__ZNSt3__117__compressed_pairIZN6Stream10sendSampleEvE3$_0NS_9allocatorIS2_EEEC1B8ue170006IJRKS2_EJRKS4_EEENS_21piecewise_construct_tENS_5tupleIJDpT_EEENSC_IJDpT0_EEE', symObjAddr: 0x4C68, symBinAddr: 0x10001F400, symSize: 0x3C }
  - { offsetInCU: 0xE74C, offset: 0x8072B, size: 0x8, addend: 0x0, symName: '__ZNSt3__15tupleIJRKNS_9allocatorIZN6Stream10sendSampleEvE3$_0EEEEC1B8ue170006INS_4_AndELi0EEES6_', symObjAddr: 0x4CA4, symBinAddr: 0x10001F43C, symSize: 0x34 }
  - { offsetInCU: 0xE794, offset: 0x80773, size: 0x8, addend: 0x0, symName: '__ZNSt3__15tupleIJRKNS_9allocatorIZN6Stream10sendSampleEvE3$_0EEEEC2B8ue170006INS_4_AndELi0EEES6_', symObjAddr: 0x4CD8, symBinAddr: 0x10001F470, symSize: 0x34 }
  - { offsetInCU: 0xE7DC, offset: 0x807BB, size: 0x8, addend: 0x0, symName: '__ZNSt3__112__tuple_implINS_15__tuple_indicesIJLm0EEEEJRKNS_9allocatorIZN6Stream10sendSampleEvE3$_0EEEEC1B8ue170006IJLm0EEJS8_EJEJEJS8_EEENS1_IJXspT_EEEENS_13__tuple_typesIJDpT0_EEENS1_IJXspT1_EEEENSC_IJDpT2_EEEDpOT3_', symObjAddr: 0x4D0C, symBinAddr: 0x10001F4A4, symSize: 0x34 }
  - { offsetInCU: 0xE871, offset: 0x80850, size: 0x8, addend: 0x0, symName: '__ZNSt3__112__tuple_implINS_15__tuple_indicesIJLm0EEEEJRKNS_9allocatorIZN6Stream10sendSampleEvE3$_0EEEEC2B8ue170006IJLm0EEJS8_EJEJEJS8_EEENS1_IJXspT_EEEENS_13__tuple_typesIJDpT0_EEENS1_IJXspT1_EEEENSC_IJDpT2_EEEDpOT3_', symObjAddr: 0x4D40, symBinAddr: 0x10001F4D8, symSize: 0x34 }
  - { offsetInCU: 0xE906, offset: 0x808E5, size: 0x8, addend: 0x0, symName: '__ZNSt3__112__tuple_leafILm0ERKNS_9allocatorIZN6Stream10sendSampleEvE3$_0EELb0EEC2B8ue170006IS6_vEEOT_', symObjAddr: 0x4D74, symBinAddr: 0x10001F50C, symSize: 0x20 }
  - { offsetInCU: 0xE949, offset: 0x80928, size: 0x8, addend: 0x0, symName: '__ZNSt3__117__compressed_pairIZN6Stream10sendSampleEvE3$_0NS_9allocatorIS2_EEEC2B8ue170006IJRKS2_EJRKS4_EEENS_21piecewise_construct_tENS_5tupleIJDpT_EEENSC_IJDpT0_EEE', symObjAddr: 0x4D94, symBinAddr: 0x10001F52C, symSize: 0x54 }
  - { offsetInCU: 0xE9B3, offset: 0x80992, size: 0x8, addend: 0x0, symName: '__ZNSt3__122__compressed_pair_elemINS_9allocatorIZN6Stream10sendSampleEvE3$_0EELi1ELb1EEC2B8ue170006IJRKS4_EJLm0EEEENS_21piecewise_construct_tENS_5tupleIJDpT_EEENS_15__tuple_indicesIJXspT0_EEEE', symObjAddr: 0x4DE8, symBinAddr: 0x10001F580, symSize: 0x38 }
  - { offsetInCU: 0xEA18, offset: 0x809F7, size: 0x8, addend: 0x0, symName: '__ZNSt3__112__tuple_leafILm0ERKNS_9allocatorIZN6Stream10sendSampleEvE3$_0EELb0EE3getB8ue170006Ev', symObjAddr: 0x4E44, symBinAddr: 0x10001F5DC, symSize: 0x18 }
  - { offsetInCU: 0xEA3E, offset: 0x80A1D, size: 0x8, addend: 0x0, symName: '__ZNSt3__110__function12__alloc_funcIZN6Stream10sendSampleEvE3$_0NS_9allocatorIS3_EEFvvEE7destroyB8ue170006Ev', symObjAddr: 0x4E5C, symBinAddr: 0x10001F5F4, symSize: 0x10 }
  - { offsetInCU: 0xEA64, offset: 0x80A43, size: 0x8, addend: 0x0, symName: '__ZNSt3__110__function12__alloc_funcIZN6Stream10sendSampleEvE3$_0NS_9allocatorIS3_EEFvvEEclB8ue170006Ev', symObjAddr: 0x4E6C, symBinAddr: 0x10001F604, symSize: 0x28 }
  - { offsetInCU: 0xEA8A, offset: 0x80A69, size: 0x8, addend: 0x0, symName: '__ZNSt3__128__invoke_void_return_wrapperIvLb1EE6__callB8ue170006IJRZN6Stream10sendSampleEvE3$_0EEEvDpOT_', symObjAddr: 0x4E94, symBinAddr: 0x10001F62C, symSize: 0x24 }
  - { offsetInCU: 0xEAB9, offset: 0x80A98, size: 0x8, addend: 0x0, symName: '__ZNSt3__117__compressed_pairIZN6Stream10sendSampleEvE3$_0NS_9allocatorIS2_EEE5firstB8ue170006Ev', symObjAddr: 0x4EB8, symBinAddr: 0x10001F650, symSize: 0x24 }
  - { offsetInCU: 0xEAE4, offset: 0x80AC3, size: 0x8, addend: 0x0, symName: '__ZZN6Stream10sendSampleEvENK3$_0clEv', symObjAddr: 0x4F00, symBinAddr: 0x10001F698, symSize: 0x28 }
  - { offsetInCU: 0xEB0E, offset: 0x80AED, size: 0x8, addend: 0x0, symName: '__ZNSt3__122__compressed_pair_elemIZN6Stream10sendSampleEvE3$_0Li0ELb0EE5__getB8ue170006Ev', symObjAddr: 0x4F28, symBinAddr: 0x10001F6C0, symSize: 0x14 }
  - { offsetInCU: 0xEB6A, offset: 0x80B49, size: 0x8, addend: 0x0, symName: __ZNKSt9type_infoeqB8ue170006ERKS_, symObjAddr: 0x4F3C, symBinAddr: 0x10001F6D4, symSize: 0xDC }
  - { offsetInCU: 0xEC08, offset: 0x80BE7, size: 0x8, addend: 0x0, symName: __ZNSt27__type_info_implementations30__non_unique_arm_rtti_bit_impl21__is_type_name_uniqueB8ue170006Em, symObjAddr: 0x5018, symBinAddr: 0x10001F7B0, symSize: 0x20 }
  - { offsetInCU: 0xEC2C, offset: 0x80C0B, size: 0x8, addend: 0x0, symName: __ZNSt3__18functionIFvN6Stream16StreamSourceTypeEyNS_6vectorISt4byteNS_9allocatorIS4_EEEEEEC2ERKS9_, symObjAddr: 0x5038, symBinAddr: 0x10001F7D0, symSize: 0x34 }
  - { offsetInCU: 0xEC67, offset: 0x80C46, size: 0x8, addend: 0x0, symName: __ZNSt3__110__function12__value_funcIFvN6Stream16StreamSourceTypeEyNS_6vectorISt4byteNS_9allocatorIS5_EEEEEEC1B8ue170006ERKSA_, symObjAddr: 0x506C, symBinAddr: 0x10001F804, symSize: 0x34 }
  - { offsetInCU: 0xECA0, offset: 0x80C7F, size: 0x8, addend: 0x0, symName: __ZNSt3__110__function12__value_funcIFvN6Stream16StreamSourceTypeEyNS_6vectorISt4byteNS_9allocatorIS5_EEEEEEC2B8ue170006ERKSA_, symObjAddr: 0x50A0, symBinAddr: 0x10001F838, symSize: 0xC0 }
  - { offsetInCU: 0xECD9, offset: 0x80CB8, size: 0x8, addend: 0x0, symName: __ZNSt3__18functionIFvN6Stream16StreamSourceTypeEyNS_6vectorISt4byteNS_9allocatorIS4_EEEEEEC1EOS9_, symObjAddr: 0x5160, symBinAddr: 0x10001F8F8, symSize: 0x34 }
  - { offsetInCU: 0xED14, offset: 0x80CF3, size: 0x8, addend: 0x0, symName: __ZNSt3__18functionIFvN6Stream16StreamSourceTypeEyNS_6vectorISt4byteNS_9allocatorIS4_EEEEEEC2EOS9_, symObjAddr: 0x5194, symBinAddr: 0x10001F92C, symSize: 0x34 }
  - { offsetInCU: 0xED4F, offset: 0x80D2E, size: 0x8, addend: 0x0, symName: __ZNSt3__110__function12__value_funcIFvN6Stream16StreamSourceTypeEyNS_6vectorISt4byteNS_9allocatorIS5_EEEEEEC1B8ue170006EOSA_, symObjAddr: 0x51C8, symBinAddr: 0x10001F960, symSize: 0x34 }
  - { offsetInCU: 0xED88, offset: 0x80D67, size: 0x8, addend: 0x0, symName: __ZNSt3__110__function12__value_funcIFvN6Stream16StreamSourceTypeEyNS_6vectorISt4byteNS_9allocatorIS5_EEEEEEC2B8ue170006EOSA_, symObjAddr: 0x51FC, symBinAddr: 0x10001F994, symSize: 0xC4 }
  - { offsetInCU: 0xEDC1, offset: 0x80DA0, size: 0x8, addend: 0x0, symName: '__ZNSt3__18functionIFvvEEC2IZN6Stream5startEvE3$_1vEET_', symObjAddr: 0x52C0, symBinAddr: 0x10001FA58, symSize: 0x38 }
  - { offsetInCU: 0xEE06, offset: 0x80DE5, size: 0x8, addend: 0x0, symName: '__ZNSt3__110__function12__value_funcIFvvEEC1B8ue170006IZN6Stream5startEvE3$_1vEEOT_', symObjAddr: 0x52F8, symBinAddr: 0x10001FA90, symSize: 0x50 }
  - { offsetInCU: 0xEE49, offset: 0x80E28, size: 0x8, addend: 0x0, symName: '__ZNSt3__19allocatorIZN6Stream5startEvE3$_1EC1B8ue170006Ev', symObjAddr: 0x5348, symBinAddr: 0x10001FAE0, symSize: 0x2C }
  - { offsetInCU: 0xEE73, offset: 0x80E52, size: 0x8, addend: 0x0, symName: '__ZNSt3__110__function12__value_funcIFvvEEC1B8ue170006IZN6Stream5startEvE3$_1NS_9allocatorIS6_EEEEOT_RKT0_', symObjAddr: 0x5374, symBinAddr: 0x10001FB0C, symSize: 0x3C }
  - { offsetInCU: 0xEECD, offset: 0x80EAC, size: 0x8, addend: 0x0, symName: '__ZNSt3__19allocatorIZN6Stream5startEvE3$_1EC2B8ue170006Ev', symObjAddr: 0x53B0, symBinAddr: 0x10001FB48, symSize: 0x2C }
  - { offsetInCU: 0xEEF7, offset: 0x80ED6, size: 0x8, addend: 0x0, symName: '__ZNSt3__116__non_trivial_ifILb1ENS_9allocatorIZN6Stream5startEvE3$_1EEEC2B8ue170006Ev', symObjAddr: 0x53DC, symBinAddr: 0x10001FB74, symSize: 0x14 }
  - { offsetInCU: 0xEF21, offset: 0x80F00, size: 0x8, addend: 0x0, symName: '__ZNSt3__110__function12__value_funcIFvvEEC2B8ue170006IZN6Stream5startEvE3$_1NS_9allocatorIS6_EEEEOT_RKT0_', symObjAddr: 0x53F0, symBinAddr: 0x10001FB88, symSize: 0x94 }
  - { offsetInCU: 0xEFC7, offset: 0x80FA6, size: 0x8, addend: 0x0, symName: '__ZNSt3__19allocatorINS_10__function6__funcIZN6Stream5startEvE3$_1NS0_IS4_EEFvvEEEEC1B8ue170006IS4_EERKNS0_IT_EE', symObjAddr: 0x549C, symBinAddr: 0x10001FC34, symSize: 0x34 }
  - { offsetInCU: 0xF00A, offset: 0x80FE9, size: 0x8, addend: 0x0, symName: '__ZNSt3__19allocatorIZN6Stream5startEvE3$_1EC1B8ue170006INS_10__function6__funcIS2_S3_FvvEEEEERKNS0_IT_EE', symObjAddr: 0x54D0, symBinAddr: 0x10001FC68, symSize: 0x34 }
  - { offsetInCU: 0xF048, offset: 0x81027, size: 0x8, addend: 0x0, symName: '__ZNSt3__110__function6__funcIZN6Stream5startEvE3$_1NS_9allocatorIS3_EEFvvEEC1B8ue170006EOS3_OS5_', symObjAddr: 0x5504, symBinAddr: 0x10001FC9C, symSize: 0x3C }
  - { offsetInCU: 0xF090, offset: 0x8106F, size: 0x8, addend: 0x0, symName: '__ZNSt3__19allocatorINS_10__function6__funcIZN6Stream5startEvE3$_1NS0_IS4_EEFvvEEEEC2B8ue170006IS4_EERKNS0_IT_EE', symObjAddr: 0x5540, symBinAddr: 0x10001FCD8, symSize: 0x30 }
  - { offsetInCU: 0xF0CE, offset: 0x810AD, size: 0x8, addend: 0x0, symName: '__ZNSt3__116__non_trivial_ifILb1ENS_9allocatorINS_10__function6__funcIZN6Stream5startEvE3$_1NS1_IS5_EEFvvEEEEEEC2B8ue170006Ev', symObjAddr: 0x5570, symBinAddr: 0x10001FD08, symSize: 0x14 }
  - { offsetInCU: 0xF0F8, offset: 0x810D7, size: 0x8, addend: 0x0, symName: '__ZNSt3__19allocatorIZN6Stream5startEvE3$_1EC2B8ue170006INS_10__function6__funcIS2_S3_FvvEEEEERKNS0_IT_EE', symObjAddr: 0x5584, symBinAddr: 0x10001FD1C, symSize: 0x30 }
  - { offsetInCU: 0xF136, offset: 0x81115, size: 0x8, addend: 0x0, symName: '__ZNSt3__110__function6__funcIZN6Stream5startEvE3$_1NS_9allocatorIS3_EEFvvEEC2B8ue170006EOS3_OS5_', symObjAddr: 0x55B4, symBinAddr: 0x10001FD4C, symSize: 0x88 }
  - { offsetInCU: 0xF17E, offset: 0x8115D, size: 0x8, addend: 0x0, symName: '__ZNSt3__110__function12__alloc_funcIZN6Stream5startEvE3$_1NS_9allocatorIS3_EEFvvEEC1B8ue170006EOS3_OS5_', symObjAddr: 0x563C, symBinAddr: 0x10001FDD4, symSize: 0x3C }
  - { offsetInCU: 0xF1C4, offset: 0x811A3, size: 0x8, addend: 0x0, symName: '__ZNSt3__110__function6__funcIZN6Stream5startEvE3$_1NS_9allocatorIS3_EEFvvEED1Ev', symObjAddr: 0x5678, symBinAddr: 0x10001FE10, symSize: 0x2C }
  - { offsetInCU: 0xF1F1, offset: 0x811D0, size: 0x8, addend: 0x0, symName: '__ZNSt3__110__function6__funcIZN6Stream5startEvE3$_1NS_9allocatorIS3_EEFvvEED0Ev', symObjAddr: 0x56A4, symBinAddr: 0x10001FE3C, symSize: 0x30 }
  - { offsetInCU: 0xF21E, offset: 0x811FD, size: 0x8, addend: 0x0, symName: '__ZNKSt3__110__function6__funcIZN6Stream5startEvE3$_1NS_9allocatorIS3_EEFvvEE7__cloneEv', symObjAddr: 0x56D4, symBinAddr: 0x10001FE6C, symSize: 0xFC }
  - { offsetInCU: 0xF270, offset: 0x8124F, size: 0x8, addend: 0x0, symName: '__ZNKSt3__110__function6__funcIZN6Stream5startEvE3$_1NS_9allocatorIS3_EEFvvEE7__cloneEPNS0_6__baseIS6_EE', symObjAddr: 0x57D0, symBinAddr: 0x10001FF68, symSize: 0x58 }
  - { offsetInCU: 0xF2A7, offset: 0x81286, size: 0x8, addend: 0x0, symName: '__ZNSt3__110__function6__funcIZN6Stream5startEvE3$_1NS_9allocatorIS3_EEFvvEE7destroyEv', symObjAddr: 0x5828, symBinAddr: 0x10001FFC0, symSize: 0x28 }
  - { offsetInCU: 0xF2CF, offset: 0x812AE, size: 0x8, addend: 0x0, symName: '__ZNSt3__110__function6__funcIZN6Stream5startEvE3$_1NS_9allocatorIS3_EEFvvEE18destroy_deallocateEv', symObjAddr: 0x5850, symBinAddr: 0x10001FFE8, symSize: 0x58 }
  - { offsetInCU: 0xF312, offset: 0x812F1, size: 0x8, addend: 0x0, symName: '__ZNSt3__110__function6__funcIZN6Stream5startEvE3$_1NS_9allocatorIS3_EEFvvEEclEv', symObjAddr: 0x58A8, symBinAddr: 0x100020040, symSize: 0x28 }
  - { offsetInCU: 0xF33A, offset: 0x81319, size: 0x8, addend: 0x0, symName: '__ZNKSt3__110__function6__funcIZN6Stream5startEvE3$_1NS_9allocatorIS3_EEFvvEE6targetERKSt9type_info', symObjAddr: 0x58D0, symBinAddr: 0x100020068, symSize: 0x60 }
  - { offsetInCU: 0xF371, offset: 0x81350, size: 0x8, addend: 0x0, symName: '__ZNKSt3__110__function6__funcIZN6Stream5startEvE3$_1NS_9allocatorIS3_EEFvvEE11target_typeEv', symObjAddr: 0x5930, symBinAddr: 0x1000200C8, symSize: 0x18 }
  - { offsetInCU: 0xF399, offset: 0x81378, size: 0x8, addend: 0x0, symName: '__ZNSt3__110__function12__alloc_funcIZN6Stream5startEvE3$_1NS_9allocatorIS3_EEFvvEEC2B8ue170006EOS3_OS5_', symObjAddr: 0x5948, symBinAddr: 0x1000200E0, symSize: 0x5C }
  - { offsetInCU: 0xF3DF, offset: 0x813BE, size: 0x8, addend: 0x0, symName: '__ZNSt3__117__compressed_pairIZN6Stream5startEvE3$_1NS_9allocatorIS2_EEEC1B8ue170006IJOS2_EJOS4_EEENS_21piecewise_construct_tENS_5tupleIJDpT_EEENSA_IJDpT0_EEE', symObjAddr: 0x59FC, symBinAddr: 0x100020194, symSize: 0x3C }
  - { offsetInCU: 0xF449, offset: 0x81428, size: 0x8, addend: 0x0, symName: '__ZNSt3__15tupleIJOZN6Stream5startEvE3$_1EEC1B8ue170006IJS2_ELi0EEEDpOT_', symObjAddr: 0x5A38, symBinAddr: 0x1000201D0, symSize: 0x34 }
  - { offsetInCU: 0xF493, offset: 0x81472, size: 0x8, addend: 0x0, symName: '__ZNSt3__15tupleIJOZN6Stream5startEvE3$_1EEC2B8ue170006IJS2_ELi0EEEDpOT_', symObjAddr: 0x5A6C, symBinAddr: 0x100020204, symSize: 0x34 }
  - { offsetInCU: 0xF4DD, offset: 0x814BC, size: 0x8, addend: 0x0, symName: '__ZNSt3__112__tuple_implINS_15__tuple_indicesIJLm0EEEEJOZN6Stream5startEvE3$_1EEC1B8ue170006IJLm0EEJS5_EJEJEJS4_EEENS1_IJXspT_EEEENS_13__tuple_typesIJDpT0_EEENS1_IJXspT1_EEEENS9_IJDpT2_EEEDpOT3_', symObjAddr: 0x5AA0, symBinAddr: 0x100020238, symSize: 0x34 }
  - { offsetInCU: 0xF572, offset: 0x81551, size: 0x8, addend: 0x0, symName: '__ZNSt3__112__tuple_implINS_15__tuple_indicesIJLm0EEEEJOZN6Stream5startEvE3$_1EEC2B8ue170006IJLm0EEJS5_EJEJEJS4_EEENS1_IJXspT_EEEENS_13__tuple_typesIJDpT0_EEENS1_IJXspT1_EEEENS9_IJDpT2_EEEDpOT3_', symObjAddr: 0x5AD4, symBinAddr: 0x10002026C, symSize: 0x34 }
  - { offsetInCU: 0xF607, offset: 0x815E6, size: 0x8, addend: 0x0, symName: '__ZNSt3__112__tuple_leafILm0EOZN6Stream5startEvE3$_1Lb0EEC2B8ue170006IS2_vEEOT_', symObjAddr: 0x5B08, symBinAddr: 0x1000202A0, symSize: 0x20 }
  - { offsetInCU: 0xF64A, offset: 0x81629, size: 0x8, addend: 0x0, symName: '__ZNSt3__15tupleIJONS_9allocatorIZN6Stream5startEvE3$_1EEEEC1B8ue170006IJS4_ELi0EEEDpOT_', symObjAddr: 0x5B28, symBinAddr: 0x1000202C0, symSize: 0x34 }
  - { offsetInCU: 0xF694, offset: 0x81673, size: 0x8, addend: 0x0, symName: '__ZNSt3__15tupleIJONS_9allocatorIZN6Stream5startEvE3$_1EEEEC2B8ue170006IJS4_ELi0EEEDpOT_', symObjAddr: 0x5B5C, symBinAddr: 0x1000202F4, symSize: 0x34 }
  - { offsetInCU: 0xF6DE, offset: 0x816BD, size: 0x8, addend: 0x0, symName: '__ZNSt3__112__tuple_implINS_15__tuple_indicesIJLm0EEEEJONS_9allocatorIZN6Stream5startEvE3$_1EEEEC1B8ue170006IJLm0EEJS7_EJEJEJS6_EEENS1_IJXspT_EEEENS_13__tuple_typesIJDpT0_EEENS1_IJXspT1_EEEENSB_IJDpT2_EEEDpOT3_', symObjAddr: 0x5B90, symBinAddr: 0x100020328, symSize: 0x34 }
  - { offsetInCU: 0xF773, offset: 0x81752, size: 0x8, addend: 0x0, symName: '__ZNSt3__112__tuple_implINS_15__tuple_indicesIJLm0EEEEJONS_9allocatorIZN6Stream5startEvE3$_1EEEEC2B8ue170006IJLm0EEJS7_EJEJEJS6_EEENS1_IJXspT_EEEENS_13__tuple_typesIJDpT0_EEENS1_IJXspT1_EEEENSB_IJDpT2_EEEDpOT3_', symObjAddr: 0x5BC4, symBinAddr: 0x10002035C, symSize: 0x34 }
  - { offsetInCU: 0xF808, offset: 0x817E7, size: 0x8, addend: 0x0, symName: '__ZNSt3__112__tuple_leafILm0EONS_9allocatorIZN6Stream5startEvE3$_1EELb0EEC2B8ue170006IS4_vEEOT_', symObjAddr: 0x5BF8, symBinAddr: 0x100020390, symSize: 0x20 }
  - { offsetInCU: 0xF84B, offset: 0x8182A, size: 0x8, addend: 0x0, symName: '__ZNSt3__117__compressed_pairIZN6Stream5startEvE3$_1NS_9allocatorIS2_EEEC2B8ue170006IJOS2_EJOS4_EEENS_21piecewise_construct_tENS_5tupleIJDpT_EEENSA_IJDpT0_EEE', symObjAddr: 0x5C18, symBinAddr: 0x1000203B0, symSize: 0x54 }
  - { offsetInCU: 0xF8B5, offset: 0x81894, size: 0x8, addend: 0x0, symName: '__ZNSt3__122__compressed_pair_elemIZN6Stream5startEvE3$_1Li0ELb0EEC2B8ue170006IJOS2_EJLm0EEEENS_21piecewise_construct_tENS_5tupleIJDpT_EEENS_15__tuple_indicesIJXspT0_EEEE', symObjAddr: 0x5C6C, symBinAddr: 0x100020404, symSize: 0x44 }
  - { offsetInCU: 0xF91A, offset: 0x818F9, size: 0x8, addend: 0x0, symName: '__ZNSt3__122__compressed_pair_elemINS_9allocatorIZN6Stream5startEvE3$_1EELi1ELb1EEC2B8ue170006IJOS4_EJLm0EEEENS_21piecewise_construct_tENS_5tupleIJDpT_EEENS_15__tuple_indicesIJXspT0_EEEE', symObjAddr: 0x5CB0, symBinAddr: 0x100020448, symSize: 0x38 }
  - { offsetInCU: 0xF97F, offset: 0x8195E, size: 0x8, addend: 0x0, symName: '__ZNSt3__112__tuple_leafILm0EOZN6Stream5startEvE3$_1Lb0EE3getB8ue170006Ev', symObjAddr: 0x5D0C, symBinAddr: 0x1000204A4, symSize: 0x18 }
  - { offsetInCU: 0xF9A5, offset: 0x81984, size: 0x8, addend: 0x0, symName: '__ZNSt3__112__tuple_leafILm0EONS_9allocatorIZN6Stream5startEvE3$_1EELb0EE3getB8ue170006Ev', symObjAddr: 0x5D48, symBinAddr: 0x1000204E0, symSize: 0x18 }
  - { offsetInCU: 0xF9CB, offset: 0x819AA, size: 0x8, addend: 0x0, symName: '__ZNSt3__110__function6__funcIZN6Stream5startEvE3$_1NS_9allocatorIS3_EEFvvEED2Ev', symObjAddr: 0x5D60, symBinAddr: 0x1000204F8, symSize: 0x2C }
  - { offsetInCU: 0xF9F8, offset: 0x819D7, size: 0x8, addend: 0x0, symName: '__ZNKSt3__110__function12__alloc_funcIZN6Stream5startEvE3$_1NS_9allocatorIS3_EEFvvEE15__get_allocatorB8ue170006Ev', symObjAddr: 0x5D8C, symBinAddr: 0x100020524, symSize: 0x24 }
  - { offsetInCU: 0xFA1E, offset: 0x819FD, size: 0x8, addend: 0x0, symName: '__ZNSt3__19allocatorINS_10__function6__funcIZN6Stream5startEvE3$_1NS0_IS4_EEFvvEEEE8allocateB8ue170006Em', symObjAddr: 0x5DB0, symBinAddr: 0x100020548, symSize: 0x58 }
  - { offsetInCU: 0xFA61, offset: 0x81A40, size: 0x8, addend: 0x0, symName: '__ZNSt3__122__allocator_destructorINS_9allocatorINS_10__function6__funcIZN6Stream5startEvE3$_1NS1_IS5_EEFvvEEEEEEC1B8ue170006ERS9_m', symObjAddr: 0x5E08, symBinAddr: 0x1000205A0, symSize: 0x3C }
  - { offsetInCU: 0xFB35, offset: 0x81B14, size: 0x8, addend: 0x0, symName: '__ZNSt3__110unique_ptrINS_10__function6__funcIZN6Stream5startEvE3$_1NS_9allocatorIS4_EEFvvEEENS_22__allocator_destructorINS5_IS8_EEEEEC1B8ue170006ILb1EvEEPS8_NS_16__dependent_typeINS_27__unique_ptr_deleter_sfinaeISB_EEXT_EE20__good_rval_ref_typeE', symObjAddr: 0x5E44, symBinAddr: 0x1000205DC, symSize: 0x3C }
  - { offsetInCU: 0xFB86, offset: 0x81B65, size: 0x8, addend: 0x0, symName: '__ZNKSt3__110unique_ptrINS_10__function6__funcIZN6Stream5startEvE3$_1NS_9allocatorIS4_EEFvvEEENS_22__allocator_destructorINS5_IS8_EEEEE3getB8ue170006Ev', symObjAddr: 0x5E80, symBinAddr: 0x100020618, symSize: 0x28 }
  - { offsetInCU: 0xFBAC, offset: 0x81B8B, size: 0x8, addend: 0x0, symName: '__ZNKSt3__110__function12__alloc_funcIZN6Stream5startEvE3$_1NS_9allocatorIS3_EEFvvEE8__targetB8ue170006Ev', symObjAddr: 0x5EA8, symBinAddr: 0x100020640, symSize: 0x24 }
  - { offsetInCU: 0xFBD2, offset: 0x81BB1, size: 0x8, addend: 0x0, symName: '__ZNSt3__110__function6__funcIZN6Stream5startEvE3$_1NS_9allocatorIS3_EEFvvEEC1B8ue170006ERKS3_OS5_', symObjAddr: 0x5ECC, symBinAddr: 0x100020664, symSize: 0x3C }
  - { offsetInCU: 0xFC1A, offset: 0x81BF9, size: 0x8, addend: 0x0, symName: '__ZNSt3__110unique_ptrINS_10__function6__funcIZN6Stream5startEvE3$_1NS_9allocatorIS4_EEFvvEEENS_22__allocator_destructorINS5_IS8_EEEEE7releaseB8ue170006Ev', symObjAddr: 0x5F08, symBinAddr: 0x1000206A0, symSize: 0x44 }
  - { offsetInCU: 0xFC4F, offset: 0x81C2E, size: 0x8, addend: 0x0, symName: '__ZNSt3__110unique_ptrINS_10__function6__funcIZN6Stream5startEvE3$_1NS_9allocatorIS4_EEFvvEEENS_22__allocator_destructorINS5_IS8_EEEEED1B8ue170006Ev', symObjAddr: 0x5F4C, symBinAddr: 0x1000206E4, symSize: 0x2C }
  - { offsetInCU: 0xFC79, offset: 0x81C58, size: 0x8, addend: 0x0, symName: '__ZNKSt3__117__compressed_pairIZN6Stream5startEvE3$_1NS_9allocatorIS2_EEE6secondB8ue170006Ev', symObjAddr: 0x5F78, symBinAddr: 0x100020710, symSize: 0x24 }
  - { offsetInCU: 0xFC9F, offset: 0x81C7E, size: 0x8, addend: 0x0, symName: '__ZNKSt3__122__compressed_pair_elemINS_9allocatorIZN6Stream5startEvE3$_1EELi1ELb1EE5__getB8ue170006Ev', symObjAddr: 0x5F9C, symBinAddr: 0x100020734, symSize: 0x14 }
  - { offsetInCU: 0xFCCF, offset: 0x81CAE, size: 0x8, addend: 0x0, symName: '__ZNSt3__116allocator_traitsINS_9allocatorINS_10__function6__funcIZN6Stream5startEvE3$_1NS1_IS5_EEFvvEEEEEE8max_sizeB8ue170006IS9_vEEmRKS9_', symObjAddr: 0x5FB0, symBinAddr: 0x100020748, symSize: 0x24 }
  - { offsetInCU: 0xFCFD, offset: 0x81CDC, size: 0x8, addend: 0x0, symName: '__ZNKSt3__19allocatorINS_10__function6__funcIZN6Stream5startEvE3$_1NS0_IS4_EEFvvEEEE8max_sizeB8ue170006Ev', symObjAddr: 0x5FD4, symBinAddr: 0x10002076C, symSize: 0x14 }
  - { offsetInCU: 0xFD23, offset: 0x81D02, size: 0x8, addend: 0x0, symName: '__ZNSt3__122__allocator_destructorINS_9allocatorINS_10__function6__funcIZN6Stream5startEvE3$_1NS1_IS5_EEFvvEEEEEEC2B8ue170006ERS9_m', symObjAddr: 0x5FE8, symBinAddr: 0x100020780, symSize: 0x2C }
  - { offsetInCU: 0xFD69, offset: 0x81D48, size: 0x8, addend: 0x0, symName: '__ZNSt3__110unique_ptrINS_10__function6__funcIZN6Stream5startEvE3$_1NS_9allocatorIS4_EEFvvEEENS_22__allocator_destructorINS5_IS8_EEEEEC2B8ue170006ILb1EvEEPS8_NS_16__dependent_typeINS_27__unique_ptr_deleter_sfinaeISB_EEXT_EE20__good_rval_ref_typeE', symObjAddr: 0x6014, symBinAddr: 0x1000207AC, symSize: 0x48 }
  - { offsetInCU: 0xFDBA, offset: 0x81D99, size: 0x8, addend: 0x0, symName: '__ZNSt3__117__compressed_pairIPNS_10__function6__funcIZN6Stream5startEvE3$_1NS_9allocatorIS4_EEFvvEEENS_22__allocator_destructorINS5_IS8_EEEEEC1B8ue170006IRS9_SC_EEOT_OT0_', symObjAddr: 0x605C, symBinAddr: 0x1000207F4, symSize: 0x3C }
  - { offsetInCU: 0xFE12, offset: 0x81DF1, size: 0x8, addend: 0x0, symName: '__ZNSt3__117__compressed_pairIPNS_10__function6__funcIZN6Stream5startEvE3$_1NS_9allocatorIS4_EEFvvEEENS_22__allocator_destructorINS5_IS8_EEEEEC2B8ue170006IRS9_SC_EEOT_OT0_', symObjAddr: 0x6098, symBinAddr: 0x100020830, symSize: 0x48 }
  - { offsetInCU: 0xFE6A, offset: 0x81E49, size: 0x8, addend: 0x0, symName: '__ZNSt3__122__compressed_pair_elemIPNS_10__function6__funcIZN6Stream5startEvE3$_1NS_9allocatorIS4_EEFvvEEELi0ELb0EEC2B8ue170006IRS9_vEEOT_', symObjAddr: 0x60E0, symBinAddr: 0x100020878, symSize: 0x24 }
  - { offsetInCU: 0xFEAC, offset: 0x81E8B, size: 0x8, addend: 0x0, symName: '__ZNSt3__122__compressed_pair_elemINS_22__allocator_destructorINS_9allocatorINS_10__function6__funcIZN6Stream5startEvE3$_1NS2_IS6_EEFvvEEEEEEELi1ELb0EEC2B8ue170006ISB_vEEOT_', symObjAddr: 0x6104, symBinAddr: 0x10002089C, symSize: 0x24 }
  - { offsetInCU: 0xFEEE, offset: 0x81ECD, size: 0x8, addend: 0x0, symName: '__ZNKSt3__117__compressed_pairIPNS_10__function6__funcIZN6Stream5startEvE3$_1NS_9allocatorIS4_EEFvvEEENS_22__allocator_destructorINS5_IS8_EEEEE5firstB8ue170006Ev', symObjAddr: 0x6128, symBinAddr: 0x1000208C0, symSize: 0x24 }
  - { offsetInCU: 0xFF14, offset: 0x81EF3, size: 0x8, addend: 0x0, symName: '__ZNKSt3__122__compressed_pair_elemIPNS_10__function6__funcIZN6Stream5startEvE3$_1NS_9allocatorIS4_EEFvvEEELi0ELb0EE5__getB8ue170006Ev', symObjAddr: 0x614C, symBinAddr: 0x1000208E4, symSize: 0x14 }
  - { offsetInCU: 0xFF3A, offset: 0x81F19, size: 0x8, addend: 0x0, symName: '__ZNKSt3__117__compressed_pairIZN6Stream5startEvE3$_1NS_9allocatorIS2_EEE5firstB8ue170006Ev', symObjAddr: 0x6160, symBinAddr: 0x1000208F8, symSize: 0x24 }
  - { offsetInCU: 0xFF60, offset: 0x81F3F, size: 0x8, addend: 0x0, symName: '__ZNKSt3__122__compressed_pair_elemIZN6Stream5startEvE3$_1Li0ELb0EE5__getB8ue170006Ev', symObjAddr: 0x6184, symBinAddr: 0x10002091C, symSize: 0x14 }
  - { offsetInCU: 0xFF86, offset: 0x81F65, size: 0x8, addend: 0x0, symName: '__ZNSt3__110__function6__funcIZN6Stream5startEvE3$_1NS_9allocatorIS3_EEFvvEEC2B8ue170006ERKS3_OS5_', symObjAddr: 0x6198, symBinAddr: 0x100020930, symSize: 0x88 }
  - { offsetInCU: 0xFFCE, offset: 0x81FAD, size: 0x8, addend: 0x0, symName: '__ZNSt3__110__function12__alloc_funcIZN6Stream5startEvE3$_1NS_9allocatorIS3_EEFvvEEC1B8ue170006ERKS3_OS5_', symObjAddr: 0x6220, symBinAddr: 0x1000209B8, symSize: 0x3C }
  - { offsetInCU: 0x10014, offset: 0x81FF3, size: 0x8, addend: 0x0, symName: '__ZNSt3__110__function12__alloc_funcIZN6Stream5startEvE3$_1NS_9allocatorIS3_EEFvvEEC2B8ue170006ERKS3_OS5_', symObjAddr: 0x625C, symBinAddr: 0x1000209F4, symSize: 0x5C }
  - { offsetInCU: 0x1005A, offset: 0x82039, size: 0x8, addend: 0x0, symName: '__ZNSt3__117__compressed_pairIZN6Stream5startEvE3$_1NS_9allocatorIS2_EEEC1B8ue170006IJRKS2_EJOS4_EEENS_21piecewise_construct_tENS_5tupleIJDpT_EEENSB_IJDpT0_EEE', symObjAddr: 0x62E4, symBinAddr: 0x100020A7C, symSize: 0x3C }
  - { offsetInCU: 0x100C4, offset: 0x820A3, size: 0x8, addend: 0x0, symName: '__ZNSt3__15tupleIJRKZN6Stream5startEvE3$_1EEC1B8ue170006INS_4_AndELi0EEES4_', symObjAddr: 0x6320, symBinAddr: 0x100020AB8, symSize: 0x34 }
  - { offsetInCU: 0x1010C, offset: 0x820EB, size: 0x8, addend: 0x0, symName: '__ZNSt3__15tupleIJRKZN6Stream5startEvE3$_1EEC2B8ue170006INS_4_AndELi0EEES4_', symObjAddr: 0x6354, symBinAddr: 0x100020AEC, symSize: 0x34 }
  - { offsetInCU: 0x10154, offset: 0x82133, size: 0x8, addend: 0x0, symName: '__ZNSt3__112__tuple_implINS_15__tuple_indicesIJLm0EEEEJRKZN6Stream5startEvE3$_1EEC1B8ue170006IJLm0EEJS6_EJEJEJS6_EEENS1_IJXspT_EEEENS_13__tuple_typesIJDpT0_EEENS1_IJXspT1_EEEENSA_IJDpT2_EEEDpOT3_', symObjAddr: 0x6388, symBinAddr: 0x100020B20, symSize: 0x34 }
  - { offsetInCU: 0x101E9, offset: 0x821C8, size: 0x8, addend: 0x0, symName: '__ZNSt3__112__tuple_implINS_15__tuple_indicesIJLm0EEEEJRKZN6Stream5startEvE3$_1EEC2B8ue170006IJLm0EEJS6_EJEJEJS6_EEENS1_IJXspT_EEEENS_13__tuple_typesIJDpT0_EEENS1_IJXspT1_EEEENSA_IJDpT2_EEEDpOT3_', symObjAddr: 0x63BC, symBinAddr: 0x100020B54, symSize: 0x34 }
  - { offsetInCU: 0x1027E, offset: 0x8225D, size: 0x8, addend: 0x0, symName: '__ZNSt3__112__tuple_leafILm0ERKZN6Stream5startEvE3$_1Lb0EEC2B8ue170006IS4_vEEOT_', symObjAddr: 0x63F0, symBinAddr: 0x100020B88, symSize: 0x20 }
  - { offsetInCU: 0x102C1, offset: 0x822A0, size: 0x8, addend: 0x0, symName: '__ZNSt3__117__compressed_pairIZN6Stream5startEvE3$_1NS_9allocatorIS2_EEEC2B8ue170006IJRKS2_EJOS4_EEENS_21piecewise_construct_tENS_5tupleIJDpT_EEENSB_IJDpT0_EEE', symObjAddr: 0x6410, symBinAddr: 0x100020BA8, symSize: 0x54 }
  - { offsetInCU: 0x1032B, offset: 0x8230A, size: 0x8, addend: 0x0, symName: '__ZNSt3__122__compressed_pair_elemIZN6Stream5startEvE3$_1Li0ELb0EEC2B8ue170006IJRKS2_EJLm0EEEENS_21piecewise_construct_tENS_5tupleIJDpT_EEENS_15__tuple_indicesIJXspT0_EEEE', symObjAddr: 0x6464, symBinAddr: 0x100020BFC, symSize: 0x44 }
  - { offsetInCU: 0x10390, offset: 0x8236F, size: 0x8, addend: 0x0, symName: '__ZNSt3__112__tuple_leafILm0ERKZN6Stream5startEvE3$_1Lb0EE3getB8ue170006Ev', symObjAddr: 0x64CC, symBinAddr: 0x100020C64, symSize: 0x18 }
  - { offsetInCU: 0x103B6, offset: 0x82395, size: 0x8, addend: 0x0, symName: '__ZNSt3__117__compressed_pairIPNS_10__function6__funcIZN6Stream5startEvE3$_1NS_9allocatorIS4_EEFvvEEENS_22__allocator_destructorINS5_IS8_EEEEE5firstB8ue170006Ev', symObjAddr: 0x64E4, symBinAddr: 0x100020C7C, symSize: 0x24 }
  - { offsetInCU: 0x103DC, offset: 0x823BB, size: 0x8, addend: 0x0, symName: '__ZNSt3__122__compressed_pair_elemIPNS_10__function6__funcIZN6Stream5startEvE3$_1NS_9allocatorIS4_EEFvvEEELi0ELb0EE5__getB8ue170006Ev', symObjAddr: 0x6508, symBinAddr: 0x100020CA0, symSize: 0x14 }
  - { offsetInCU: 0x10402, offset: 0x823E1, size: 0x8, addend: 0x0, symName: '__ZNSt3__110unique_ptrINS_10__function6__funcIZN6Stream5startEvE3$_1NS_9allocatorIS4_EEFvvEEENS_22__allocator_destructorINS5_IS8_EEEEED2B8ue170006Ev', symObjAddr: 0x651C, symBinAddr: 0x100020CB4, symSize: 0x30 }
  - { offsetInCU: 0x1042C, offset: 0x8240B, size: 0x8, addend: 0x0, symName: '__ZNSt3__110unique_ptrINS_10__function6__funcIZN6Stream5startEvE3$_1NS_9allocatorIS4_EEFvvEEENS_22__allocator_destructorINS5_IS8_EEEEE5resetB8ue170006EPS8_', symObjAddr: 0x654C, symBinAddr: 0x100020CE4, symSize: 0x78 }
  - { offsetInCU: 0x10470, offset: 0x8244F, size: 0x8, addend: 0x0, symName: '__ZNSt3__117__compressed_pairIPNS_10__function6__funcIZN6Stream5startEvE3$_1NS_9allocatorIS4_EEFvvEEENS_22__allocator_destructorINS5_IS8_EEEEE6secondB8ue170006Ev', symObjAddr: 0x65C4, symBinAddr: 0x100020D5C, symSize: 0x28 }
  - { offsetInCU: 0x10496, offset: 0x82475, size: 0x8, addend: 0x0, symName: '__ZNSt3__122__allocator_destructorINS_9allocatorINS_10__function6__funcIZN6Stream5startEvE3$_1NS1_IS5_EEFvvEEEEEEclB8ue170006EPS8_', symObjAddr: 0x65EC, symBinAddr: 0x100020D84, symSize: 0x34 }
  - { offsetInCU: 0x104CA, offset: 0x824A9, size: 0x8, addend: 0x0, symName: '__ZNSt3__122__compressed_pair_elemINS_22__allocator_destructorINS_9allocatorINS_10__function6__funcIZN6Stream5startEvE3$_1NS2_IS6_EEFvvEEEEEEELi1ELb0EE5__getB8ue170006Ev', symObjAddr: 0x6620, symBinAddr: 0x100020DB8, symSize: 0x14 }
  - { offsetInCU: 0x104F0, offset: 0x824CF, size: 0x8, addend: 0x0, symName: '__ZNSt3__116allocator_traitsINS_9allocatorINS_10__function6__funcIZN6Stream5startEvE3$_1NS1_IS5_EEFvvEEEEEE10deallocateB8ue170006ERS9_PS8_m', symObjAddr: 0x6634, symBinAddr: 0x100020DCC, symSize: 0x34 }
  - { offsetInCU: 0x10532, offset: 0x82511, size: 0x8, addend: 0x0, symName: '__ZNSt3__19allocatorINS_10__function6__funcIZN6Stream5startEvE3$_1NS0_IS4_EEFvvEEEE10deallocateB8ue170006EPS7_m', symObjAddr: 0x6668, symBinAddr: 0x100020E00, symSize: 0x40 }
  - { offsetInCU: 0x10574, offset: 0x82553, size: 0x8, addend: 0x0, symName: '__ZNSt3__110__function6__funcIZN6Stream5startEvE3$_1NS_9allocatorIS3_EEFvvEEC1B8ue170006ERKS3_RKS5_', symObjAddr: 0x66A8, symBinAddr: 0x100020E40, symSize: 0x3C }
  - { offsetInCU: 0x105BC, offset: 0x8259B, size: 0x8, addend: 0x0, symName: '__ZNSt3__110__function6__funcIZN6Stream5startEvE3$_1NS_9allocatorIS3_EEFvvEEC2B8ue170006ERKS3_RKS5_', symObjAddr: 0x66E4, symBinAddr: 0x100020E7C, symSize: 0x88 }
  - { offsetInCU: 0x10604, offset: 0x825E3, size: 0x8, addend: 0x0, symName: '__ZNSt3__110__function12__alloc_funcIZN6Stream5startEvE3$_1NS_9allocatorIS3_EEFvvEEC1B8ue170006ERKS3_RKS5_', symObjAddr: 0x676C, symBinAddr: 0x100020F04, symSize: 0x3C }
  - { offsetInCU: 0x1064A, offset: 0x82629, size: 0x8, addend: 0x0, symName: '__ZNSt3__110__function12__alloc_funcIZN6Stream5startEvE3$_1NS_9allocatorIS3_EEFvvEEC2B8ue170006ERKS3_RKS5_', symObjAddr: 0x67A8, symBinAddr: 0x100020F40, symSize: 0x5C }
  - { offsetInCU: 0x10690, offset: 0x8266F, size: 0x8, addend: 0x0, symName: '__ZNSt3__117__compressed_pairIZN6Stream5startEvE3$_1NS_9allocatorIS2_EEEC1B8ue170006IJRKS2_EJRKS4_EEENS_21piecewise_construct_tENS_5tupleIJDpT_EEENSC_IJDpT0_EEE', symObjAddr: 0x6830, symBinAddr: 0x100020FC8, symSize: 0x3C }
  - { offsetInCU: 0x106FA, offset: 0x826D9, size: 0x8, addend: 0x0, symName: '__ZNSt3__15tupleIJRKNS_9allocatorIZN6Stream5startEvE3$_1EEEEC1B8ue170006INS_4_AndELi0EEES6_', symObjAddr: 0x686C, symBinAddr: 0x100021004, symSize: 0x34 }
  - { offsetInCU: 0x10742, offset: 0x82721, size: 0x8, addend: 0x0, symName: '__ZNSt3__15tupleIJRKNS_9allocatorIZN6Stream5startEvE3$_1EEEEC2B8ue170006INS_4_AndELi0EEES6_', symObjAddr: 0x68A0, symBinAddr: 0x100021038, symSize: 0x34 }
  - { offsetInCU: 0x1078A, offset: 0x82769, size: 0x8, addend: 0x0, symName: '__ZNSt3__112__tuple_implINS_15__tuple_indicesIJLm0EEEEJRKNS_9allocatorIZN6Stream5startEvE3$_1EEEEC1B8ue170006IJLm0EEJS8_EJEJEJS8_EEENS1_IJXspT_EEEENS_13__tuple_typesIJDpT0_EEENS1_IJXspT1_EEEENSC_IJDpT2_EEEDpOT3_', symObjAddr: 0x68D4, symBinAddr: 0x10002106C, symSize: 0x34 }
  - { offsetInCU: 0x1081F, offset: 0x827FE, size: 0x8, addend: 0x0, symName: '__ZNSt3__112__tuple_implINS_15__tuple_indicesIJLm0EEEEJRKNS_9allocatorIZN6Stream5startEvE3$_1EEEEC2B8ue170006IJLm0EEJS8_EJEJEJS8_EEENS1_IJXspT_EEEENS_13__tuple_typesIJDpT0_EEENS1_IJXspT1_EEEENSC_IJDpT2_EEEDpOT3_', symObjAddr: 0x6908, symBinAddr: 0x1000210A0, symSize: 0x34 }
  - { offsetInCU: 0x108B4, offset: 0x82893, size: 0x8, addend: 0x0, symName: '__ZNSt3__112__tuple_leafILm0ERKNS_9allocatorIZN6Stream5startEvE3$_1EELb0EEC2B8ue170006IS6_vEEOT_', symObjAddr: 0x693C, symBinAddr: 0x1000210D4, symSize: 0x20 }
  - { offsetInCU: 0x108F7, offset: 0x828D6, size: 0x8, addend: 0x0, symName: '__ZNSt3__117__compressed_pairIZN6Stream5startEvE3$_1NS_9allocatorIS2_EEEC2B8ue170006IJRKS2_EJRKS4_EEENS_21piecewise_construct_tENS_5tupleIJDpT_EEENSC_IJDpT0_EEE', symObjAddr: 0x695C, symBinAddr: 0x1000210F4, symSize: 0x54 }
  - { offsetInCU: 0x10961, offset: 0x82940, size: 0x8, addend: 0x0, symName: '__ZNSt3__122__compressed_pair_elemINS_9allocatorIZN6Stream5startEvE3$_1EELi1ELb1EEC2B8ue170006IJRKS4_EJLm0EEEENS_21piecewise_construct_tENS_5tupleIJDpT_EEENS_15__tuple_indicesIJXspT0_EEEE', symObjAddr: 0x69B0, symBinAddr: 0x100021148, symSize: 0x38 }
  - { offsetInCU: 0x109C6, offset: 0x829A5, size: 0x8, addend: 0x0, symName: '__ZNSt3__112__tuple_leafILm0ERKNS_9allocatorIZN6Stream5startEvE3$_1EELb0EE3getB8ue170006Ev', symObjAddr: 0x6A0C, symBinAddr: 0x1000211A4, symSize: 0x18 }
  - { offsetInCU: 0x109EC, offset: 0x829CB, size: 0x8, addend: 0x0, symName: '__ZNSt3__110__function12__alloc_funcIZN6Stream5startEvE3$_1NS_9allocatorIS3_EEFvvEE7destroyB8ue170006Ev', symObjAddr: 0x6A24, symBinAddr: 0x1000211BC, symSize: 0x10 }
  - { offsetInCU: 0x10A12, offset: 0x829F1, size: 0x8, addend: 0x0, symName: '__ZNSt3__110__function12__alloc_funcIZN6Stream5startEvE3$_1NS_9allocatorIS3_EEFvvEEclB8ue170006Ev', symObjAddr: 0x6A34, symBinAddr: 0x1000211CC, symSize: 0x28 }
  - { offsetInCU: 0x10A38, offset: 0x82A17, size: 0x8, addend: 0x0, symName: '__ZNSt3__128__invoke_void_return_wrapperIvLb1EE6__callB8ue170006IJRZN6Stream5startEvE3$_1EEEvDpOT_', symObjAddr: 0x6A5C, symBinAddr: 0x1000211F4, symSize: 0x24 }
  - { offsetInCU: 0x10A67, offset: 0x82A46, size: 0x8, addend: 0x0, symName: '__ZNSt3__117__compressed_pairIZN6Stream5startEvE3$_1NS_9allocatorIS2_EEE5firstB8ue170006Ev', symObjAddr: 0x6A80, symBinAddr: 0x100021218, symSize: 0x24 }
  - { offsetInCU: 0x10A92, offset: 0x82A71, size: 0x8, addend: 0x0, symName: '__ZZN6Stream5startEvENK3$_1clEv', symObjAddr: 0x6AC8, symBinAddr: 0x100021260, symSize: 0x28 }
  - { offsetInCU: 0x10ABC, offset: 0x82A9B, size: 0x8, addend: 0x0, symName: '__ZNSt3__122__compressed_pair_elemIZN6Stream5startEvE3$_1Li0ELb0EE5__getB8ue170006Ev', symObjAddr: 0x6AF0, symBinAddr: 0x100021288, symSize: 0x14 }
...
